Archive member included because of file (symbol)

/usr/local/CodeSourcery/bin/../lib/gcc/arm-none-eabi/4.5.2/../../../../arm-none-eabi/lib/thumb2/libm.a(lib_a-s_floor.o)
                              Debug/main.o (floor)
/usr/local/CodeSourcery/bin/../lib/gcc/arm-none-eabi/4.5.2/thumb2/libgcc.a(_arm_addsubdf3.o)
                              Debug/hlt.o (__aeabi_dsub)
/usr/local/CodeSourcery/bin/../lib/gcc/arm-none-eabi/4.5.2/thumb2/libgcc.a(_arm_muldivdf3.o)
                              Debug/hlt.o (__aeabi_dmul)
/usr/local/CodeSourcery/bin/../lib/gcc/arm-none-eabi/4.5.2/thumb2/libgcc.a(_arm_cmpdf2.o)
                              Debug/ds1820.o (__aeabi_dcmplt)
/usr/local/CodeSourcery/bin/../lib/gcc/arm-none-eabi/4.5.2/thumb2/libgcc.a(_arm_fixunsdfsi.o)
                              Debug/main.o (__aeabi_d2uiz)
/usr/local/CodeSourcery/bin/../lib/gcc/arm-none-eabi/4.5.2/thumb2/libgcc.a(_arm_truncdfsf2.o)
                              Debug/hlt.o (__aeabi_d2f)
/usr/local/CodeSourcery/bin/../lib/gcc/arm-none-eabi/4.5.2/thumb2/libgcc.a(_arm_addsubsf3.o)
                              Debug/hlt.o (__aeabi_fsub)
/usr/local/CodeSourcery/bin/../lib/gcc/arm-none-eabi/4.5.2/thumb2/libgcc.a(_arm_muldivsf3.o)
                              Debug/hlt.o (__aeabi_fmul)
/usr/local/CodeSourcery/bin/../lib/gcc/arm-none-eabi/4.5.2/thumb2/libgcc.a(_arm_cmpsf2.o)
                              Debug/ds1820.o (__aeabi_fcmpeq)
/usr/local/CodeSourcery/bin/../lib/gcc/arm-none-eabi/4.5.2/thumb2/libgcc.a(_arm_fixsfsi.o)
                              Debug/hlt.o (__aeabi_f2iz)
/usr/local/CodeSourcery/bin/../lib/gcc/arm-none-eabi/4.5.2/../../../../arm-none-eabi/lib/thumb2/libc.a(lib_a-atof.o)
                              Debug/parameters.o (atof)
/usr/local/CodeSourcery/bin/../lib/gcc/arm-none-eabi/4.5.2/../../../../arm-none-eabi/lib/thumb2/libc.a(lib_a-atoi.o)
                              Debug/parameters.o (atoi)
/usr/local/CodeSourcery/bin/../lib/gcc/arm-none-eabi/4.5.2/../../../../arm-none-eabi/lib/thumb2/libc.a(lib_a-fflush.o)
                              Debug/serial.o (fflush)
/usr/local/CodeSourcery/bin/../lib/gcc/arm-none-eabi/4.5.2/../../../../arm-none-eabi/lib/thumb2/libc.a(lib_a-findfp.o)
                              /usr/local/CodeSourcery/bin/../lib/gcc/arm-none-eabi/4.5.2/../../../../arm-none-eabi/lib/thumb2/libc.a(lib_a-fflush.o) (__sinit)
/usr/local/CodeSourcery/bin/../lib/gcc/arm-none-eabi/4.5.2/../../../../arm-none-eabi/lib/thumb2/libc.a(lib_a-fwalk.o)
                              /usr/local/CodeSourcery/bin/../lib/gcc/arm-none-eabi/4.5.2/../../../../arm-none-eabi/lib/thumb2/libc.a(lib_a-findfp.o) (_fwalk)
/usr/local/CodeSourcery/bin/../lib/gcc/arm-none-eabi/4.5.2/../../../../arm-none-eabi/lib/thumb2/libc.a(lib_a-impure.o)
                              Debug/serial.o (_impure_ptr)
/usr/local/CodeSourcery/bin/../lib/gcc/arm-none-eabi/4.5.2/../../../../arm-none-eabi/lib/thumb2/libc.a(lib_a-malloc.o)
                              Debug/ds1820.o (malloc)
/usr/local/CodeSourcery/bin/../lib/gcc/arm-none-eabi/4.5.2/../../../../arm-none-eabi/lib/thumb2/libc.a(lib_a-memcmp.o)
                              Debug/tasks.o (memcmp)
/usr/local/CodeSourcery/bin/../lib/gcc/arm-none-eabi/4.5.2/../../../../arm-none-eabi/lib/thumb2/libc.a(lib_a-memcpy.o)
                              Debug/serial.o (memcpy)
/usr/local/CodeSourcery/bin/../lib/gcc/arm-none-eabi/4.5.2/../../../../arm-none-eabi/lib/thumb2/libc.a(lib_a-memset.o)
                              Debug/tasks.o (memset)
/usr/local/CodeSourcery/bin/../lib/gcc/arm-none-eabi/4.5.2/../../../../arm-none-eabi/lib/thumb2/libc.a(lib_a-putchar.o)
                              Debug/printf-stdarg.o (putchar)
/usr/local/CodeSourcery/bin/../lib/gcc/arm-none-eabi/4.5.2/../../../../arm-none-eabi/lib/thumb2/libc.a(lib_a-puts.o)
                              Debug/main.o (puts)
/usr/local/CodeSourcery/bin/../lib/gcc/arm-none-eabi/4.5.2/../../../../arm-none-eabi/lib/thumb2/libc.a(lib_a-reent.o)
                              Debug/stf_syscalls_minimal.o (errno)
/usr/local/CodeSourcery/bin/../lib/gcc/arm-none-eabi/4.5.2/../../../../arm-none-eabi/lib/thumb2/libc.a(lib_a-stdio.o)
                              /usr/local/CodeSourcery/bin/../lib/gcc/arm-none-eabi/4.5.2/../../../../arm-none-eabi/lib/thumb2/libc.a(lib_a-findfp.o) (__sread)
/usr/local/CodeSourcery/bin/../lib/gcc/arm-none-eabi/4.5.2/../../../../arm-none-eabi/lib/thumb2/libc.a(lib_a-strcat.o)
                              Debug/tasks.o (strcat)
/usr/local/CodeSourcery/bin/../lib/gcc/arm-none-eabi/4.5.2/../../../../arm-none-eabi/lib/thumb2/libc.a(lib_a-strcmp.o)
                              Debug/serial.o (strcmp)
/usr/local/CodeSourcery/bin/../lib/gcc/arm-none-eabi/4.5.2/../../../../arm-none-eabi/lib/thumb2/libc.a(lib_a-strcpy.o)
                              Debug/serial.o (strcpy)
/usr/local/CodeSourcery/bin/../lib/gcc/arm-none-eabi/4.5.2/../../../../arm-none-eabi/lib/thumb2/libc.a(lib_a-strlen.o)
                              Debug/serial.o (strlen)
/usr/local/CodeSourcery/bin/../lib/gcc/arm-none-eabi/4.5.2/../../../../arm-none-eabi/lib/thumb2/libc.a(lib_a-strncpy.o)
                              Debug/tasks.o (strncpy)
/usr/local/CodeSourcery/bin/../lib/gcc/arm-none-eabi/4.5.2/../../../../arm-none-eabi/lib/thumb2/libc.a(lib_a-strtod.o)
                              /usr/local/CodeSourcery/bin/../lib/gcc/arm-none-eabi/4.5.2/../../../../arm-none-eabi/lib/thumb2/libc.a(lib_a-atof.o) (strtod)
/usr/local/CodeSourcery/bin/../lib/gcc/arm-none-eabi/4.5.2/../../../../arm-none-eabi/lib/thumb2/libc.a(lib_a-strtol.o)
                              /usr/local/CodeSourcery/bin/../lib/gcc/arm-none-eabi/4.5.2/../../../../arm-none-eabi/lib/thumb2/libc.a(lib_a-atoi.o) (_strtol_r)
/usr/local/CodeSourcery/bin/../lib/gcc/arm-none-eabi/4.5.2/../../../../arm-none-eabi/lib/thumb2/libc.a(lib_a-vsnprintf.o)
                              Debug/lcd.o (vsnprintf)
/usr/local/CodeSourcery/bin/../lib/gcc/arm-none-eabi/4.5.2/../../../../arm-none-eabi/lib/thumb2/libc.a(lib_a-writer.o)
                              /usr/local/CodeSourcery/bin/../lib/gcc/arm-none-eabi/4.5.2/../../../../arm-none-eabi/lib/thumb2/libc.a(lib_a-stdio.o) (_write_r)
/usr/local/CodeSourcery/bin/../lib/gcc/arm-none-eabi/4.5.2/../../../../arm-none-eabi/lib/thumb2/libc.a(lib_a-closer.o)
                              /usr/local/CodeSourcery/bin/../lib/gcc/arm-none-eabi/4.5.2/../../../../arm-none-eabi/lib/thumb2/libc.a(lib_a-stdio.o) (_close_r)
/usr/local/CodeSourcery/bin/../lib/gcc/arm-none-eabi/4.5.2/../../../../arm-none-eabi/lib/thumb2/libc.a(lib_a-ctype_.o)
                              /usr/local/CodeSourcery/bin/../lib/gcc/arm-none-eabi/4.5.2/../../../../arm-none-eabi/lib/thumb2/libc.a(lib_a-strtol.o) (__ctype_ptr__)
/usr/local/CodeSourcery/bin/../lib/gcc/arm-none-eabi/4.5.2/../../../../arm-none-eabi/lib/thumb2/libc.a(lib_a-fclose.o)
                              /usr/local/CodeSourcery/bin/../lib/gcc/arm-none-eabi/4.5.2/../../../../arm-none-eabi/lib/thumb2/libc.a(lib_a-findfp.o) (fclose)
/usr/local/CodeSourcery/bin/../lib/gcc/arm-none-eabi/4.5.2/../../../../arm-none-eabi/lib/thumb2/libc.a(lib_a-fvwrite.o)
                              /usr/local/CodeSourcery/bin/../lib/gcc/arm-none-eabi/4.5.2/../../../../arm-none-eabi/lib/thumb2/libc.a(lib_a-puts.o) (__sfvwrite_r)
/usr/local/CodeSourcery/bin/../lib/gcc/arm-none-eabi/4.5.2/../../../../arm-none-eabi/lib/thumb2/libc.a(lib_a-gdtoa-gethex.o)
                              /usr/local/CodeSourcery/bin/../lib/gcc/arm-none-eabi/4.5.2/../../../../arm-none-eabi/lib/thumb2/libc.a(lib_a-strtod.o) (__gethex)
/usr/local/CodeSourcery/bin/../lib/gcc/arm-none-eabi/4.5.2/../../../../arm-none-eabi/lib/thumb2/libc.a(lib_a-gdtoa-hexnan.o)
                              /usr/local/CodeSourcery/bin/../lib/gcc/arm-none-eabi/4.5.2/../../../../arm-none-eabi/lib/thumb2/libc.a(lib_a-strtod.o) (__hexnan)
/usr/local/CodeSourcery/bin/../lib/gcc/arm-none-eabi/4.5.2/../../../../arm-none-eabi/lib/thumb2/libc.a(lib_a-locale.o)
                              /usr/local/CodeSourcery/bin/../lib/gcc/arm-none-eabi/4.5.2/../../../../arm-none-eabi/lib/thumb2/libc.a(lib_a-strtod.o) (_localeconv_r)
/usr/local/CodeSourcery/bin/../lib/gcc/arm-none-eabi/4.5.2/../../../../arm-none-eabi/lib/thumb2/libc.a(lib_a-lseekr.o)
                              /usr/local/CodeSourcery/bin/../lib/gcc/arm-none-eabi/4.5.2/../../../../arm-none-eabi/lib/thumb2/libc.a(lib_a-stdio.o) (_lseek_r)
/usr/local/CodeSourcery/bin/../lib/gcc/arm-none-eabi/4.5.2/../../../../arm-none-eabi/lib/thumb2/libc.a(lib_a-memchr.o)
                              /usr/local/CodeSourcery/bin/../lib/gcc/arm-none-eabi/4.5.2/../../../../arm-none-eabi/lib/thumb2/libc.a(lib_a-fvwrite.o) (memchr)
/usr/local/CodeSourcery/bin/../lib/gcc/arm-none-eabi/4.5.2/../../../../arm-none-eabi/lib/thumb2/libc.a(lib_a-memmove.o)
                              /usr/local/CodeSourcery/bin/../lib/gcc/arm-none-eabi/4.5.2/../../../../arm-none-eabi/lib/thumb2/libc.a(lib_a-fvwrite.o) (memmove)
/usr/local/CodeSourcery/bin/../lib/gcc/arm-none-eabi/4.5.2/../../../../arm-none-eabi/lib/thumb2/libc.a(lib_a-mprec.o)
                              /usr/local/CodeSourcery/bin/../lib/gcc/arm-none-eabi/4.5.2/../../../../arm-none-eabi/lib/thumb2/libc.a(lib_a-strtod.o) (_Balloc)
/usr/local/CodeSourcery/bin/../lib/gcc/arm-none-eabi/4.5.2/../../../../arm-none-eabi/lib/thumb2/libc.a(lib_a-putc.o)
                              /usr/local/CodeSourcery/bin/../lib/gcc/arm-none-eabi/4.5.2/../../../../arm-none-eabi/lib/thumb2/libc.a(lib_a-putchar.o) (_putc_r)
/usr/local/CodeSourcery/bin/../lib/gcc/arm-none-eabi/4.5.2/../../../../arm-none-eabi/lib/thumb2/libc.a(lib_a-readr.o)
                              /usr/local/CodeSourcery/bin/../lib/gcc/arm-none-eabi/4.5.2/../../../../arm-none-eabi/lib/thumb2/libc.a(lib_a-stdio.o) (_read_r)
/usr/local/CodeSourcery/bin/../lib/gcc/arm-none-eabi/4.5.2/../../../../arm-none-eabi/lib/thumb2/libc.a(lib_a-strncmp.o)
                              /usr/local/CodeSourcery/bin/../lib/gcc/arm-none-eabi/4.5.2/../../../../arm-none-eabi/lib/thumb2/libc.a(lib_a-strtod.o) (strncmp)
/usr/local/CodeSourcery/bin/../lib/gcc/arm-none-eabi/4.5.2/../../../../arm-none-eabi/lib/thumb2/libc.a(lib_a-svfprintf.o)
                              /usr/local/CodeSourcery/bin/../lib/gcc/arm-none-eabi/4.5.2/../../../../arm-none-eabi/lib/thumb2/libc.a(lib_a-vsnprintf.o) (_svfprintf_r)
/usr/local/CodeSourcery/bin/../lib/gcc/arm-none-eabi/4.5.2/../../../../arm-none-eabi/lib/thumb2/libc.a(lib_a-wbuf.o)
                              /usr/local/CodeSourcery/bin/../lib/gcc/arm-none-eabi/4.5.2/../../../../arm-none-eabi/lib/thumb2/libc.a(lib_a-putc.o) (__swbuf_r)
/usr/local/CodeSourcery/bin/../lib/gcc/arm-none-eabi/4.5.2/../../../../arm-none-eabi/lib/thumb2/libc.a(lib_a-wsetup.o)
                              /usr/local/CodeSourcery/bin/../lib/gcc/arm-none-eabi/4.5.2/../../../../arm-none-eabi/lib/thumb2/libc.a(lib_a-fvwrite.o) (__swsetup_r)
/usr/local/CodeSourcery/bin/../lib/gcc/arm-none-eabi/4.5.2/../../../../arm-none-eabi/lib/thumb2/libc.a(lib_a-dtoa.o)
                              /usr/local/CodeSourcery/bin/../lib/gcc/arm-none-eabi/4.5.2/../../../../arm-none-eabi/lib/thumb2/libc.a(lib_a-svfprintf.o) (_dtoa_r)
/usr/local/CodeSourcery/bin/../lib/gcc/arm-none-eabi/4.5.2/../../../../arm-none-eabi/lib/thumb2/libc.a(lib_a-makebuf.o)
                              /usr/local/CodeSourcery/bin/../lib/gcc/arm-none-eabi/4.5.2/../../../../arm-none-eabi/lib/thumb2/libc.a(lib_a-wsetup.o) (__smakebuf_r)
/usr/local/CodeSourcery/bin/../lib/gcc/arm-none-eabi/4.5.2/../../../../arm-none-eabi/lib/thumb2/libc.a(lib_a-s_fpclassify.o)
                              /usr/local/CodeSourcery/bin/../lib/gcc/arm-none-eabi/4.5.2/../../../../arm-none-eabi/lib/thumb2/libc.a(lib_a-svfprintf.o) (__fpclassifyd)
/usr/local/CodeSourcery/bin/../lib/gcc/arm-none-eabi/4.5.2/../../../../arm-none-eabi/lib/thumb2/libc.a(lib_a-svfiprintf.o)
                              /usr/local/CodeSourcery/bin/../lib/gcc/arm-none-eabi/4.5.2/../../../../arm-none-eabi/lib/thumb2/libc.a(lib_a-svfprintf.o) (__ssprint_r)
/usr/local/CodeSourcery/bin/../lib/gcc/arm-none-eabi/4.5.2/../../../../arm-none-eabi/lib/thumb2/libc.a(lib_a-fstatr.o)
                              /usr/local/CodeSourcery/bin/../lib/gcc/arm-none-eabi/4.5.2/../../../../arm-none-eabi/lib/thumb2/libc.a(lib_a-makebuf.o) (_fstat_r)
/usr/local/CodeSourcery/bin/../lib/gcc/arm-none-eabi/4.5.2/../../../../arm-none-eabi/lib/thumb2/libc.a(lib_a-isattyr.o)
                              /usr/local/CodeSourcery/bin/../lib/gcc/arm-none-eabi/4.5.2/../../../../arm-none-eabi/lib/thumb2/libc.a(lib_a-makebuf.o) (_isatty_r)
/usr/local/CodeSourcery/bin/../lib/gcc/arm-none-eabi/4.5.2/thumb2/libgcc.a(_udivsi3.o)
                              /usr/local/CodeSourcery/bin/../lib/gcc/arm-none-eabi/4.5.2/../../../../arm-none-eabi/lib/thumb2/libc.a(lib_a-strtol.o) (__aeabi_uidiv)
/usr/local/CodeSourcery/bin/../lib/gcc/arm-none-eabi/4.5.2/thumb2/libgcc.a(_dvmd_tls.o)
                              /usr/local/CodeSourcery/bin/../lib/gcc/arm-none-eabi/4.5.2/thumb2/libgcc.a(_udivsi3.o) (__aeabi_idiv0)
/usr/local/CodeSourcery/bin/../lib/gcc/arm-none-eabi/4.5.2/thumb2/libgcc.a(_arm_fixdfsi.o)
                              /usr/local/CodeSourcery/bin/../lib/gcc/arm-none-eabi/4.5.2/../../../../arm-none-eabi/lib/thumb2/libc.a(lib_a-strtod.o) (__aeabi_d2iz)
/usr/local/CodeSourcery/bin/../lib/gcc/arm-none-eabi/4.5.2/thumb2/libgcc.a(_aeabi_uldivmod.o)
                              /usr/local/CodeSourcery/bin/../lib/gcc/arm-none-eabi/4.5.2/../../../../arm-none-eabi/lib/thumb2/libc.a(lib_a-svfprintf.o) (__aeabi_uldivmod)
/usr/local/CodeSourcery/bin/../lib/gcc/arm-none-eabi/4.5.2/thumb2/libgcc.a(bpabi.o)
                              /usr/local/CodeSourcery/bin/../lib/gcc/arm-none-eabi/4.5.2/thumb2/libgcc.a(_aeabi_uldivmod.o) (__gnu_uldivmod_helper)
/usr/local/CodeSourcery/bin/../lib/gcc/arm-none-eabi/4.5.2/thumb2/libgcc.a(_divdi3.o)
                              /usr/local/CodeSourcery/bin/../lib/gcc/arm-none-eabi/4.5.2/thumb2/libgcc.a(bpabi.o) (__divdi3)
/usr/local/CodeSourcery/bin/../lib/gcc/arm-none-eabi/4.5.2/thumb2/libgcc.a(_udivdi3.o)
                              /usr/local/CodeSourcery/bin/../lib/gcc/arm-none-eabi/4.5.2/thumb2/libgcc.a(bpabi.o) (__udivdi3)

Allocating common symbols
Common symbol       size              file

xMessage2           0xc               Debug/brew.o
pxMessage           0x4               Debug/crane.o
b                   0x1c              Debug/ds1820.o
xAppletRunningSemaphore
                    0x4               Debug/mash_pump.o
xHLTAppletRunningSemaphore
                    0x4               Debug/hlt.o
xCheckTaskHandle    0x4               Debug/main.o
rom                 0x8               Debug/ds1820.o
xStirState          0x1               Debug/stir.o
errno               0x4               /usr/local/CodeSourcery/bin/../lib/gcc/arm-none-eabi/4.5.2/../../../../arm-none-eabi/lib/thumb2/libc.a(lib_a-reent.o)
ulMashFlowPulses    0x4               Debug/Flow1.o
xI2C_SendQueue      0x4               Debug/I2C-IO.o
xTaskDiagPWMAppletHandle
                    0x4               Debug/diag_pwm.o
xHopsTaskHandle     0x4               Debug/main.o
iStirTime2          0x4               Debug/brew.o
input               0x20              Debug/parameters.o
xLcdSemaphore       0x4               Debug/lcd.o
xPrintQueue         0x4               Debug/console.o
BrewParameters      0x9c              Debug/parameters.o
__hexdig            0x100             /usr/local/CodeSourcery/bin/../lib/gcc/arm-none-eabi/4.5.2/../../../../arm-none-eabi/lib/thumb2/libc.a(lib_a-gdtoa-gethex.o)
iMashTime           0x4               Debug/brew.o
xPWMAppletRunningSemaphore
                    0x4               Debug/diag_pwm.o
xSerialControlTaskHandle
                    0x4               Debug/main.o
xValvesAppletRunningSemaphore
                    0x4               Debug/valves.o
xLitresToMashQueue  0x4               Debug/Flow1.o
xStirAppletRunningSemaphore
                    0x4               Debug/stirApplet.o
xChillerAppletRunningSemaphore
                    0x4               Debug/chiller_pump.o
cmp                 0x20              Debug/serial.o
xTaskDS1820DisplayTempsHandle
                    0x4               Debug/diag_temps.o
xCommandQueue       0x4               Debug/serial.o
xBeepTaskHandle     0x4               Debug/main.o
xLitresToBoilQueue  0x4               Debug/Flow1.o
xDS1820TaskHandle   0x4               Debug/main.o
xTouchTaskHandle    0x4               Debug/main.o
xHopsQueue          0x4               Debug/main.o
xBoilValveQueue     0x4               Debug/boil_valve.o
xI2C_SendHandle     0x4               Debug/main.o
ITM_RxBuffer        0x4               Debug/main.o
iPumpTime1          0x4               Debug/brew.o
xBeepQueue          0x4               Debug/speaker.o
iStirTime1          0x4               Debug/brew.o
U1Rx                0x83              Debug/serial.o
uRunTimeCounter     0x2               Debug/io_util.o
temps               0x1c              Debug/ds1820.o
xTimerSetupHandle   0x4               Debug/main.o
xBrewAppletRunningSemaphore
                    0x4               Debug/brew.o
xLCDTaskHandle      0x4               Debug/main.o
xBoilValveAppletDisplayHandle
                    0x4               Debug/boil_valve.o
buf                 0x32              Debug/timer.o
xFlow1AppletRunningSemaphore
                    0x4               Debug/Flow1.o
xPrintTaskHandle    0x4               Debug/main.o
xI2C_TestHandle     0x4               Debug/main.o
xHopAppletRunningSemaphore
                    0x4               Debug/hop_dropper.o
xSerialHandlerTaskHandle
                    0x4               Debug/main.o
U1Tx                0x83              Debug/serial.o
xMessage1           0x4               Debug/brew.o
xBoilValveTaskHandle
                    0x4               Debug/main.o
iPumpTime2          0x4               Debug/brew.o
xSerialHandlerSemaphore
                    0x4               Debug/serial.o

Memory Configuration

Name             Origin             Length             Attributes
FLASH            0x00000000         0x00080000         xr
SRAM             0x20000000         0x00010000         xrw
*default*        0x00000000         0xffffffff

Linker script and memory map

LOAD Debug/main.o
LOAD Debug/lcd.o
LOAD Debug/printf-stdarg.o
LOAD Debug/touch.o
LOAD Debug/serial.o
LOAD Debug/adc.o
LOAD Debug/leds.o
LOAD Debug/buffer.o
LOAD Debug/hlt.o
LOAD Debug/mash_pump.o
LOAD Debug/mill.o
LOAD Debug/boil.o
LOAD Debug/hop_dropper.o
LOAD Debug/stir.o
LOAD Debug/stirApplet.o
LOAD Debug/menu.o
LOAD Debug/valves.o
LOAD Debug/diag_temps.o
LOAD Debug/crane.o
LOAD Debug/speaker.o
LOAD Debug/timer.o
LOAD Debug/ds1820.o
LOAD Debug/Flow1.o
LOAD Debug/diag_pwm.o
LOAD Debug/I2C-IO.o
LOAD Debug/chiller_pump.o
LOAD Debug/console.o
LOAD Debug/brew.o
LOAD Debug/parameters.o
LOAD Debug/boil_valve.o
LOAD Debug/stf_syscalls_minimal.o
LOAD Debug/io_util.o
LOAD Debug/core_cm3.o
LOAD Debug/system_stm32f10x.o
LOAD Debug/stm32f10x_it.o
LOAD Debug/stm32f10x_i2c.o
LOAD Debug/misc.o
LOAD Debug/stm32f10x_rcc.o
LOAD Debug/stm32f10x_gpio.o
LOAD Debug/stm32f10x_spi.o
LOAD Debug/stm32f10x_tim.o
LOAD Debug/stm32f10x_usart.o
LOAD Debug/stm32f10x_fsmc.o
LOAD Debug/stm32f10x_flash.o
LOAD Debug/stm32f10x_adc.o
LOAD Debug/stm32f10x_exti.o
LOAD Debug/list.o
LOAD Debug/queue.o
LOAD Debug/tasks.o
LOAD Debug/port.o
LOAD Debug/heap_2.o
LOAD Debug/startup_stm32f10x.o
LOAD /usr/local/CodeSourcery/bin/../lib/gcc/arm-none-eabi/4.5.2/../../../../arm-none-eabi/lib/thumb2/libm.a
START GROUP
LOAD /usr/local/CodeSourcery/bin/../lib/gcc/arm-none-eabi/4.5.2/thumb2/libgcc.a
LOAD /usr/local/CodeSourcery/bin/../lib/gcc/arm-none-eabi/4.5.2/../../../../arm-none-eabi/lib/thumb2/libc.a
END GROUP

.text           0x00000000    0x3ac18
 *(.isr_vector)
 .isr_vector    0x00000000      0x1e0 Debug/startup_stm32f10x.o
                0x00000000                g_pfnVectors
 *(.text .text.* .gnu.linkonce.t.*)
 .text          0x000001e0        0x0 Debug/main.o
 .text.__enable_irq
                0x000001e0        0xc Debug/main.o
 .text.__disable_irq
                0x000001ec        0xc Debug/main.o
 .text.__enable_fault_irq
                0x000001f8        0xc Debug/main.o
 .text.__disable_fault_irq
                0x00000204        0xc Debug/main.o
 .text.__NOP    0x00000210        0xc Debug/main.o
 .text.__WFI    0x0000021c        0xc Debug/main.o
 .text.__WFE    0x00000228        0xc Debug/main.o
 .text.__SEV    0x00000234        0xc Debug/main.o
 .text.__ISB    0x00000240       0x10 Debug/main.o
 .text.__DSB    0x00000250       0x10 Debug/main.o
 .text.__DMB    0x00000260       0x10 Debug/main.o
 .text.__CLREX  0x00000270       0x10 Debug/main.o
 .text.NVIC_SetPriorityGrouping
                0x00000280       0x4c Debug/main.o
 .text.NVIC_GetPriorityGrouping
                0x000002cc       0x1c Debug/main.o
 .text.NVIC_EnableIRQ
                0x000002e8       0x34 Debug/main.o
 .text.NVIC_DisableIRQ
                0x0000031c       0x38 Debug/main.o
 .text.NVIC_GetPendingIRQ
                0x00000354       0x4c Debug/main.o
 .text.NVIC_SetPendingIRQ
                0x000003a0       0x38 Debug/main.o
 .text.NVIC_ClearPendingIRQ
                0x000003d8       0x38 Debug/main.o
 .text.NVIC_GetActive
                0x00000410       0x4c Debug/main.o
 .text.NVIC_SetPriority
                0x0000045c       0x58 Debug/main.o
 .text.NVIC_GetPriority
                0x000004b4       0x54 Debug/main.o
 .text.NVIC_EncodePriority
                0x00000508       0x7c Debug/main.o
 .text.NVIC_DecodePriority
                0x00000584       0x7c Debug/main.o
 .text.SysTick_Config
                0x00000600       0x54 Debug/main.o
 .text.NVIC_SystemReset
                0x00000654       0x24 Debug/main.o
 .text.ITM_SendChar
                0x00000678       0x60 Debug/main.o
 .text.ITM_ReceiveChar
                0x000006d8       0x38 Debug/main.o
 .text.ITM_CheckChar
                0x00000710       0x28 Debug/main.o
 .text.item_1_callback
                0x00000738       0x28 Debug/main.o
                0x00000738                item_1_callback
 .text.item_2_callback
                0x00000760       0x50 Debug/main.o
                0x00000760                item_2_callback
 .text.example_applet
                0x000007b0       0x44 Debug/main.o
                0x000007b0                example_applet
 .text.example_applet_touch_handler
                0x000007f4       0x64 Debug/main.o
                0x000007f4                example_applet_touch_handler
 .text.vCheckTask
                0x00000858      0x3fc Debug/main.o
                0x00000858                vCheckTask
 .text.main     0x00000c54      0x350 Debug/main.o
                0x00000c54                main
 .text.prvSetupHardware
                0x00000fa4       0xcc Debug/main.o
 .text.vApplicationStackOverflowHook
                0x00001070       0x3c Debug/main.o
                0x00001070                vApplicationStackOverflowHook
 .text.vApplicationIdleHook
                0x000010ac       0x1c Debug/main.o
                0x000010ac                vApplicationIdleHook
 .text.assert_failed
                0x000010c8       0x1c Debug/main.o
                0x000010c8                assert_failed
 .text          0x000010e4        0x0 Debug/lcd.o
 .text.__enable_irq
                0x000010e4        0xc Debug/lcd.o
 .text.__disable_irq
                0x000010f0        0xc Debug/lcd.o
 .text.__enable_fault_irq
                0x000010fc        0xc Debug/lcd.o
 .text.__disable_fault_irq
                0x00001108        0xc Debug/lcd.o
 .text.__NOP    0x00001114        0xc Debug/lcd.o
 .text.__WFI    0x00001120        0xc Debug/lcd.o
 .text.__WFE    0x0000112c        0xc Debug/lcd.o
 .text.__SEV    0x00001138        0xc Debug/lcd.o
 .text.__ISB    0x00001144       0x10 Debug/lcd.o
 .text.__DSB    0x00001154       0x10 Debug/lcd.o
 .text.__DMB    0x00001164       0x10 Debug/lcd.o
 .text.__CLREX  0x00001174       0x10 Debug/lcd.o
 .text.NVIC_SetPriorityGrouping
                0x00001184       0x4c Debug/lcd.o
 .text.NVIC_GetPriorityGrouping
                0x000011d0       0x1c Debug/lcd.o
 .text.NVIC_EnableIRQ
                0x000011ec       0x34 Debug/lcd.o
 .text.NVIC_DisableIRQ
                0x00001220       0x38 Debug/lcd.o
 .text.NVIC_GetPendingIRQ
                0x00001258       0x4c Debug/lcd.o
 .text.NVIC_SetPendingIRQ
                0x000012a4       0x38 Debug/lcd.o
 .text.NVIC_ClearPendingIRQ
                0x000012dc       0x38 Debug/lcd.o
 .text.NVIC_GetActive
                0x00001314       0x4c Debug/lcd.o
 .text.NVIC_SetPriority
                0x00001360       0x58 Debug/lcd.o
 .text.NVIC_GetPriority
                0x000013b8       0x54 Debug/lcd.o
 .text.NVIC_EncodePriority
                0x0000140c       0x7c Debug/lcd.o
 .text.NVIC_DecodePriority
                0x00001488       0x7c Debug/lcd.o
 .text.SysTick_Config
                0x00001504       0x54 Debug/lcd.o
 .text.NVIC_SystemReset
                0x00001558       0x24 Debug/lcd.o
 .text.ITM_SendChar
                0x0000157c       0x60 Debug/lcd.o
 .text.ITM_ReceiveChar
                0x000015dc       0x38 Debug/lcd.o
 .text.ITM_CheckChar
                0x00001614       0x28 Debug/lcd.o
 .text.Delay    0x0000163c       0x40 Debug/lcd.o
                0x0000163c                Delay
 .text.write_cmd
                0x0000167c       0x1c Debug/lcd.o
 .text.read_data
                0x00001698       0x18 Debug/lcd.o
 .text.write_data
                0x000016b0       0x20 Debug/lcd.o
 .text.write_reg
                0x000016d0       0x28 Debug/lcd.o
 .text.read_reg
                0x000016f8       0x30 Debug/lcd.o
 .text.lcd_getdeviceid
                0x00001728       0x14 Debug/lcd.o
                0x00001728                lcd_getdeviceid
 .text.BGR2RGB  0x0000173c       0x50 Debug/lcd.o
                0x0000173c                BGR2RGB
 .text.lcd_SetCursor
                0x0000178c       0x30 Debug/lcd.o
                0x0000178c                lcd_SetCursor
 .text.lcd_read_gram
                0x000017bc       0x38 Debug/lcd.o
                0x000017bc                lcd_read_gram
 .text.lcd_init
                0x000017f4       0x90 Debug/lcd.o
                0x000017f4                lcd_init
 .text.LCD_FSMCConfig
                0x00001884       0xa4 Debug/lcd.o
 .text.lcd_port_init
                0x00001928       0xbc Debug/lcd.o
 .text.power_SET
                0x000019e4      0x160 Debug/lcd.o
 .text.gamma_SET
                0x00001b44       0x90 Debug/lcd.o
 .text.display_ON
                0x00001bd4       0x64 Debug/lcd.o
 .text.display_OFF
                0x00001c38       0x24 Debug/lcd.o
 .text.lcd_data_bus_test
                0x00001c5c       0xa8 Debug/lcd.o
 .text.lcd_gram_test
                0x00001d04       0xe8 Debug/lcd.o
 .text.LCD_SetDisplayWindow
                0x00001dec       0xa4 Debug/lcd.o
                0x00001dec                LCD_SetDisplayWindow
 .text.lcd_write_ram_prepare
                0x00001e90       0x10 Debug/lcd.o
 .text.lcd_set_cursor
                0x00001ea0       0x38 Debug/lcd.o
 .text.lcd_char_xy
                0x00001ed8       0xac Debug/lcd.o
 .text.lcd_DrawHLine
                0x00001f84       0x54 Debug/lcd.o
 .text.lcd_DrawVLine
                0x00001fd8       0x54 Debug/lcd.o
 .text.lcd_lock
                0x0000202c       0x40 Debug/lcd.o
                0x0000202c                lcd_lock
 .text.lcd_release
                0x0000206c       0x2c Debug/lcd.o
                0x0000206c                lcd_release
 .text.lcd_text_xy
                0x00002098       0xb0 Debug/lcd.o
                0x00002098                lcd_text_xy
 .text.lcd_text
                0x00002148       0x44 Debug/lcd.o
                0x00002148                lcd_text
 .text.lcd_fill
                0x0000218c       0x94 Debug/lcd.o
                0x0000218c                lcd_fill
 .text.lcd_printf
                0x00002220       0xb4 Debug/lcd.o
                0x00002220                lcd_printf
 .text.lcd_clear
                0x000022d4       0x78 Debug/lcd.o
                0x000022d4                lcd_clear
 .text.lcd_background
                0x0000234c       0x20 Debug/lcd.o
                0x0000234c                lcd_background
 .text.lcd_DrawRect
                0x0000236c       0xb0 Debug/lcd.o
                0x0000236c                lcd_DrawRect
 .text.display_on
                0x0000241c       0x14 Debug/lcd.o
                0x0000241c                display_on
 .text.display_off
                0x00002430       0x20 Debug/lcd.o
                0x00002430                display_off
 .text          0x00002450        0x0 Debug/printf-stdarg.o
 .text.printchar
                0x00002450       0x38 Debug/printf-stdarg.o
 .text.prints   0x00002488       0xd0 Debug/printf-stdarg.o
 .text.printi   0x00002558       0xf4 Debug/printf-stdarg.o
 .text.print    0x0000264c      0x218 Debug/printf-stdarg.o
 .text.printf   0x00002864       0x2c Debug/printf-stdarg.o
                0x00002864                printf
 .text.sprintf  0x00002890       0x30 Debug/printf-stdarg.o
                0x00002890                sprintf
 .text.snprintf
                0x000028c0       0x34 Debug/printf-stdarg.o
                0x000028c0                snprintf
 .text          0x000028f4        0x0 Debug/touch.o
 .text.__enable_irq
                0x000028f4        0xc Debug/touch.o
 .text.__disable_irq
                0x00002900        0xc Debug/touch.o
 .text.__enable_fault_irq
                0x0000290c        0xc Debug/touch.o
 .text.__disable_fault_irq
                0x00002918        0xc Debug/touch.o
 .text.__NOP    0x00002924        0xc Debug/touch.o
 .text.__WFI    0x00002930        0xc Debug/touch.o
 .text.__WFE    0x0000293c        0xc Debug/touch.o
 .text.__SEV    0x00002948        0xc Debug/touch.o
 .text.__ISB    0x00002954       0x10 Debug/touch.o
 .text.__DSB    0x00002964       0x10 Debug/touch.o
 .text.__DMB    0x00002974       0x10 Debug/touch.o
 .text.__CLREX  0x00002984       0x10 Debug/touch.o
 .text.NVIC_SetPriorityGrouping
                0x00002994       0x4c Debug/touch.o
 .text.NVIC_GetPriorityGrouping
                0x000029e0       0x1c Debug/touch.o
 .text.NVIC_EnableIRQ
                0x000029fc       0x34 Debug/touch.o
 .text.NVIC_DisableIRQ
                0x00002a30       0x38 Debug/touch.o
 .text.NVIC_GetPendingIRQ
                0x00002a68       0x4c Debug/touch.o
 .text.NVIC_SetPendingIRQ
                0x00002ab4       0x38 Debug/touch.o
 .text.NVIC_ClearPendingIRQ
                0x00002aec       0x38 Debug/touch.o
 .text.NVIC_GetActive
                0x00002b24       0x4c Debug/touch.o
 .text.NVIC_SetPriority
                0x00002b70       0x58 Debug/touch.o
 .text.NVIC_GetPriority
                0x00002bc8       0x54 Debug/touch.o
 .text.NVIC_EncodePriority
                0x00002c1c       0x7c Debug/touch.o
 .text.NVIC_DecodePriority
                0x00002c98       0x7c Debug/touch.o
 .text.SysTick_Config
                0x00002d14       0x54 Debug/touch.o
 .text.NVIC_SystemReset
                0x00002d68       0x24 Debug/touch.o
 .text.ITM_SendChar
                0x00002d8c       0x60 Debug/touch.o
 .text.ITM_ReceiveChar
                0x00002dec       0x38 Debug/touch.o
 .text.ITM_CheckChar
                0x00002e24       0x28 Debug/touch.o
 .text.SPI_CS   0x00002e4c       0x34 Debug/touch.o
                0x00002e4c                SPI_CS
 .text.SPI_DIN  0x00002e80       0x34 Debug/touch.o
                0x00002e80                SPI_DIN
 .text.SPI_CLK  0x00002eb4       0x34 Debug/touch.o
                0x00002eb4                SPI_CLK
 .text.SPI_DOUT
                0x00002ee8       0x18 Debug/touch.o
                0x00002ee8                SPI_DOUT
 .text.SPI_delay
                0x00002f00       0x2c Debug/touch.o
                0x00002f00                SPI_delay
 .text.Touch_Start
                0x00002f2c       0x30 Debug/touch.o
                0x00002f2c                Touch_Start
 .text.Touch_Write
                0x00002f5c       0x64 Debug/touch.o
                0x00002f5c                Touch_Write
 .text.Touch_Read
                0x00002fc0       0x58 Debug/touch.o
                0x00002fc0                Touch_Read
 .text.Touch_Busy
                0x00003018       0x18 Debug/touch.o
                0x00003018                Touch_Busy
 .text.Touch_PenIRQ
                0x00003030       0x18 Debug/touch.o
                0x00003030                Touch_PenIRQ
 .text.Touch_Initializtion
                0x00003048       0xf8 Debug/touch.o
                0x00003048                Touch_Initializtion
 .text._AD2X    0x00003140       0x60 Debug/touch.o
                0x00003140                _AD2X
 .text._AD2Y    0x000031a0       0x64 Debug/touch.o
                0x000031a0                _AD2Y
 .text.Touch_MeasurementY
                0x00003204       0x80 Debug/touch.o
                0x00003204                Touch_MeasurementY
 .text.Touch_MeasurementX
                0x00003284       0x80 Debug/touch.o
                0x00003284                Touch_MeasurementX
 .text.Touch_GetPhyX
                0x00003304       0x40 Debug/touch.o
                0x00003304                Touch_GetPhyX
 .text.Touch_GetPhyY
                0x00003344       0x40 Debug/touch.o
                0x00003344                Touch_GetPhyY
 .text.vTouchTask
                0x00003384       0x94 Debug/touch.o
                0x00003384                vTouchTask
 .text          0x00003418        0x0 Debug/serial.o
 .text.__enable_irq
                0x00003418        0xc Debug/serial.o
 .text.__disable_irq
                0x00003424        0xc Debug/serial.o
 .text.__enable_fault_irq
                0x00003430        0xc Debug/serial.o
 .text.__disable_fault_irq
                0x0000343c        0xc Debug/serial.o
 .text.__NOP    0x00003448        0xc Debug/serial.o
 .text.__WFI    0x00003454        0xc Debug/serial.o
 .text.__WFE    0x00003460        0xc Debug/serial.o
 .text.__SEV    0x0000346c        0xc Debug/serial.o
 .text.__ISB    0x00003478       0x10 Debug/serial.o
 .text.__DSB    0x00003488       0x10 Debug/serial.o
 .text.__DMB    0x00003498       0x10 Debug/serial.o
 .text.__CLREX  0x000034a8       0x10 Debug/serial.o
 .text.NVIC_SetPriorityGrouping
                0x000034b8       0x4c Debug/serial.o
 .text.NVIC_GetPriorityGrouping
                0x00003504       0x1c Debug/serial.o
 .text.NVIC_EnableIRQ
                0x00003520       0x34 Debug/serial.o
 .text.NVIC_DisableIRQ
                0x00003554       0x38 Debug/serial.o
 .text.NVIC_GetPendingIRQ
                0x0000358c       0x4c Debug/serial.o
 .text.NVIC_SetPendingIRQ
                0x000035d8       0x38 Debug/serial.o
 .text.NVIC_ClearPendingIRQ
                0x00003610       0x38 Debug/serial.o
 .text.NVIC_GetActive
                0x00003648       0x4c Debug/serial.o
 .text.NVIC_SetPriority
                0x00003694       0x58 Debug/serial.o
 .text.NVIC_GetPriority
                0x000036ec       0x54 Debug/serial.o
 .text.NVIC_EncodePriority
                0x00003740       0x7c Debug/serial.o
 .text.NVIC_DecodePriority
                0x000037bc       0x7c Debug/serial.o
 .text.SysTick_Config
                0x00003838       0x54 Debug/serial.o
 .text.NVIC_SystemReset
                0x0000388c       0x24 Debug/serial.o
 .text.ITM_SendChar
                0x000038b0       0x60 Debug/serial.o
 .text.ITM_ReceiveChar
                0x00003910       0x38 Debug/serial.o
 .text.ITM_CheckChar
                0x00003948       0x28 Debug/serial.o
 .text.comm_test
                0x00003970       0x24 Debug/serial.o
                0x00003970                comm_test
 .text.comm_get
                0x00003994       0x48 Debug/serial.o
                0x00003994                comm_get
 .text.comm_put
                0x000039dc       0x34 Debug/serial.o
                0x000039dc                comm_put
 .text.comm_puts
                0x00003a10       0x38 Debug/serial.o
                0x00003a10                comm_puts
 .text.USARTInit
                0x00003a48      0x15c Debug/serial.o
                0x00003a48                USARTInit
 .text.USART1_IRQHandler
                0x00003ba4       0xa8 Debug/serial.o
                0x00003ba4                USART1_IRQHandler
 .text.vSerialHandlerTask
                0x00003c4c      0x1a8 Debug/serial.o
                0x00003c4c                vSerialHandlerTask
 .text.vSerialControlCentreTask
                0x00003df4       0xf8 Debug/serial.o
                0x00003df4                vSerialControlCentreTask
 .text          0x00003eec        0x0 Debug/adc.o
 .text.__enable_irq
                0x00003eec        0xc Debug/adc.o
 .text.__disable_irq
                0x00003ef8        0xc Debug/adc.o
 .text.__enable_fault_irq
                0x00003f04        0xc Debug/adc.o
 .text.__disable_fault_irq
                0x00003f10        0xc Debug/adc.o
 .text.__NOP    0x00003f1c        0xc Debug/adc.o
 .text.__WFI    0x00003f28        0xc Debug/adc.o
 .text.__WFE    0x00003f34        0xc Debug/adc.o
 .text.__SEV    0x00003f40        0xc Debug/adc.o
 .text.__ISB    0x00003f4c       0x10 Debug/adc.o
 .text.__DSB    0x00003f5c       0x10 Debug/adc.o
 .text.__DMB    0x00003f6c       0x10 Debug/adc.o
 .text.__CLREX  0x00003f7c       0x10 Debug/adc.o
 .text.NVIC_SetPriorityGrouping
                0x00003f8c       0x4c Debug/adc.o
 .text.NVIC_GetPriorityGrouping
                0x00003fd8       0x1c Debug/adc.o
 .text.NVIC_EnableIRQ
                0x00003ff4       0x34 Debug/adc.o
 .text.NVIC_DisableIRQ
                0x00004028       0x38 Debug/adc.o
 .text.NVIC_GetPendingIRQ
                0x00004060       0x4c Debug/adc.o
 .text.NVIC_SetPendingIRQ
                0x000040ac       0x38 Debug/adc.o
 .text.NVIC_ClearPendingIRQ
                0x000040e4       0x38 Debug/adc.o
 .text.NVIC_GetActive
                0x0000411c       0x4c Debug/adc.o
 .text.NVIC_SetPriority
                0x00004168       0x58 Debug/adc.o
 .text.NVIC_GetPriority
                0x000041c0       0x54 Debug/adc.o
 .text.NVIC_EncodePriority
                0x00004214       0x7c Debug/adc.o
 .text.NVIC_DecodePriority
                0x00004290       0x7c Debug/adc.o
 .text.SysTick_Config
                0x0000430c       0x54 Debug/adc.o
 .text.NVIC_SystemReset
                0x00004360       0x24 Debug/adc.o
 .text.ITM_SendChar
                0x00004384       0x60 Debug/adc.o
 .text.ITM_ReceiveChar
                0x000043e4       0x38 Debug/adc.o
 .text.ITM_CheckChar
                0x0000441c       0x28 Debug/adc.o
 .text.adc_init
                0x00004444       0x90 Debug/adc.o
                0x00004444                adc_init
 .text.read_adc
                0x000044d4       0x50 Debug/adc.o
                0x000044d4                read_adc
 .text          0x00004524        0x0 Debug/leds.o
 .text.__enable_irq
                0x00004524        0xc Debug/leds.o
 .text.__disable_irq
                0x00004530        0xc Debug/leds.o
 .text.__enable_fault_irq
                0x0000453c        0xc Debug/leds.o
 .text.__disable_fault_irq
                0x00004548        0xc Debug/leds.o
 .text.__NOP    0x00004554        0xc Debug/leds.o
 .text.__WFI    0x00004560        0xc Debug/leds.o
 .text.__WFE    0x0000456c        0xc Debug/leds.o
 .text.__SEV    0x00004578        0xc Debug/leds.o
 .text.__ISB    0x00004584       0x10 Debug/leds.o
 .text.__DSB    0x00004594       0x10 Debug/leds.o
 .text.__DMB    0x000045a4       0x10 Debug/leds.o
 .text.__CLREX  0x000045b4       0x10 Debug/leds.o
 .text.NVIC_SetPriorityGrouping
                0x000045c4       0x4c Debug/leds.o
 .text.NVIC_GetPriorityGrouping
                0x00004610       0x1c Debug/leds.o
 .text.NVIC_EnableIRQ
                0x0000462c       0x34 Debug/leds.o
 .text.NVIC_DisableIRQ
                0x00004660       0x38 Debug/leds.o
 .text.NVIC_GetPendingIRQ
                0x00004698       0x4c Debug/leds.o
 .text.NVIC_SetPendingIRQ
                0x000046e4       0x38 Debug/leds.o
 .text.NVIC_ClearPendingIRQ
                0x0000471c       0x38 Debug/leds.o
 .text.NVIC_GetActive
                0x00004754       0x4c Debug/leds.o
 .text.NVIC_SetPriority
                0x000047a0       0x58 Debug/leds.o
 .text.NVIC_GetPriority
                0x000047f8       0x54 Debug/leds.o
 .text.NVIC_EncodePriority
                0x0000484c       0x7c Debug/leds.o
 .text.NVIC_DecodePriority
                0x000048c8       0x7c Debug/leds.o
 .text.SysTick_Config
                0x00004944       0x54 Debug/leds.o
 .text.NVIC_SystemReset
                0x00004998       0x24 Debug/leds.o
 .text.ITM_SendChar
                0x000049bc       0x60 Debug/leds.o
 .text.ITM_ReceiveChar
                0x00004a1c       0x38 Debug/leds.o
 .text.ITM_CheckChar
                0x00004a54       0x28 Debug/leds.o
 .text.vLEDInit
                0x00004a7c       0x70 Debug/leds.o
                0x00004a7c                vLEDInit
 .text.vStartupLEDTask
                0x00004aec       0xb4 Debug/leds.o
                0x00004aec                vStartupLEDTask
 .text.vLEDFlashTask
                0x00004ba0       0x34 Debug/leds.o
                0x00004ba0                vLEDFlashTask
 .text.vLEDSet  0x00004bd4       0x44 Debug/leds.o
                0x00004bd4                vLEDSet
 .text.vLEDToggle
                0x00004c18       0x48 Debug/leds.o
                0x00004c18                vLEDToggle
 .text          0x00004c60        0x0 Debug/buffer.o
 .text.__enable_irq
                0x00004c60        0xc Debug/buffer.o
 .text.__disable_irq
                0x00004c6c        0xc Debug/buffer.o
 .text.__enable_fault_irq
                0x00004c78        0xc Debug/buffer.o
 .text.__disable_fault_irq
                0x00004c84        0xc Debug/buffer.o
 .text.__NOP    0x00004c90        0xc Debug/buffer.o
 .text.__WFI    0x00004c9c        0xc Debug/buffer.o
 .text.__WFE    0x00004ca8        0xc Debug/buffer.o
 .text.__SEV    0x00004cb4        0xc Debug/buffer.o
 .text.__ISB    0x00004cc0       0x10 Debug/buffer.o
 .text.__DSB    0x00004cd0       0x10 Debug/buffer.o
 .text.__DMB    0x00004ce0       0x10 Debug/buffer.o
 .text.__CLREX  0x00004cf0       0x10 Debug/buffer.o
 .text.NVIC_SetPriorityGrouping
                0x00004d00       0x4c Debug/buffer.o
 .text.NVIC_GetPriorityGrouping
                0x00004d4c       0x1c Debug/buffer.o
 .text.NVIC_EnableIRQ
                0x00004d68       0x34 Debug/buffer.o
 .text.NVIC_DisableIRQ
                0x00004d9c       0x38 Debug/buffer.o
 .text.NVIC_GetPendingIRQ
                0x00004dd4       0x4c Debug/buffer.o
 .text.NVIC_SetPendingIRQ
                0x00004e20       0x38 Debug/buffer.o
 .text.NVIC_ClearPendingIRQ
                0x00004e58       0x38 Debug/buffer.o
 .text.NVIC_GetActive
                0x00004e90       0x4c Debug/buffer.o
 .text.NVIC_SetPriority
                0x00004edc       0x58 Debug/buffer.o
 .text.NVIC_GetPriority
                0x00004f34       0x54 Debug/buffer.o
 .text.NVIC_EncodePriority
                0x00004f88       0x7c Debug/buffer.o
 .text.NVIC_DecodePriority
                0x00005004       0x7c Debug/buffer.o
 .text.SysTick_Config
                0x00005080       0x54 Debug/buffer.o
 .text.NVIC_SystemReset
                0x000050d4       0x24 Debug/buffer.o
 .text.ITM_SendChar
                0x000050f8       0x60 Debug/buffer.o
 .text.ITM_ReceiveChar
                0x00005158       0x38 Debug/buffer.o
 .text.ITM_CheckChar
                0x00005190       0x28 Debug/buffer.o
 .text.BufferInit
                0x000051b8       0x4c Debug/buffer.o
                0x000051b8                BufferInit
 .text.BufferPut
                0x00005204       0x68 Debug/buffer.o
                0x00005204                BufferPut
 .text.BufferGet
                0x0000526c       0x6c Debug/buffer.o
                0x0000526c                BufferGet
 .text.BufferIsEmpty
                0x000052d8       0x2c Debug/buffer.o
                0x000052d8                BufferIsEmpty
 .text          0x00005304        0x0 Debug/hlt.o
 .text.__enable_irq
                0x00005304        0xc Debug/hlt.o
 .text.__disable_irq
                0x00005310        0xc Debug/hlt.o
 .text.__enable_fault_irq
                0x0000531c        0xc Debug/hlt.o
 .text.__disable_fault_irq
                0x00005328        0xc Debug/hlt.o
 .text.__NOP    0x00005334        0xc Debug/hlt.o
 .text.__WFI    0x00005340        0xc Debug/hlt.o
 .text.__WFE    0x0000534c        0xc Debug/hlt.o
 .text.__SEV    0x00005358        0xc Debug/hlt.o
 .text.__ISB    0x00005364       0x10 Debug/hlt.o
 .text.__DSB    0x00005374       0x10 Debug/hlt.o
 .text.__DMB    0x00005384       0x10 Debug/hlt.o
 .text.__CLREX  0x00005394       0x10 Debug/hlt.o
 .text.NVIC_SetPriorityGrouping
                0x000053a4       0x4c Debug/hlt.o
 .text.NVIC_GetPriorityGrouping
                0x000053f0       0x1c Debug/hlt.o
 .text.NVIC_EnableIRQ
                0x0000540c       0x34 Debug/hlt.o
 .text.NVIC_DisableIRQ
                0x00005440       0x38 Debug/hlt.o
 .text.NVIC_GetPendingIRQ
                0x00005478       0x4c Debug/hlt.o
 .text.NVIC_SetPendingIRQ
                0x000054c4       0x38 Debug/hlt.o
 .text.NVIC_ClearPendingIRQ
                0x000054fc       0x38 Debug/hlt.o
 .text.NVIC_GetActive
                0x00005534       0x4c Debug/hlt.o
 .text.NVIC_SetPriority
                0x00005580       0x58 Debug/hlt.o
 .text.NVIC_GetPriority
                0x000055d8       0x54 Debug/hlt.o
 .text.NVIC_EncodePriority
                0x0000562c       0x7c Debug/hlt.o
 .text.NVIC_DecodePriority
                0x000056a8       0x7c Debug/hlt.o
 .text.SysTick_Config
                0x00005724       0x54 Debug/hlt.o
 .text.NVIC_SystemReset
                0x00005778       0x24 Debug/hlt.o
 .text.ITM_SendChar
                0x0000579c       0x60 Debug/hlt.o
 .text.ITM_ReceiveChar
                0x000057fc       0x38 Debug/hlt.o
 .text.ITM_CheckChar
                0x00005834       0x28 Debug/hlt.o
 .text.hlt_init
                0x0000585c       0xf0 Debug/hlt.o
                0x0000585c                hlt_init
 *fill*         0x0000594c        0x4 00
 .text.vTaskBrewHLT
                0x00005950      0x680 Debug/hlt.o
                0x00005950                vTaskBrewHLT
 .text.vTaskHLTLevelChecker
                0x00005fd0      0x134 Debug/hlt.o
                0x00005fd0                vTaskHLTLevelChecker
 .text.vTaskHeatHLT
                0x00006104       0xf4 Debug/hlt.o
                0x00006104                vTaskHeatHLT
 .text.vHLTApplet
                0x000061f8      0x1ec Debug/hlt.o
                0x000061f8                vHLTApplet
 *fill*         0x000063e4        0x4 00
 .text.vHLTAppletDisplay
                0x000063e8      0x398 Debug/hlt.o
                0x000063e8                vHLTAppletDisplay
 .text.vHLTAppletCallback
                0x00006780       0x14 Debug/hlt.o
                0x00006780                vHLTAppletCallback
 .text.HLTKey   0x00006794      0x1b8 Debug/hlt.o
                0x00006794                HLTKey
 .text          0x0000694c        0x0 Debug/mash_pump.o
 .text.__enable_irq
                0x0000694c        0xc Debug/mash_pump.o
 .text.__disable_irq
                0x00006958        0xc Debug/mash_pump.o
 .text.__enable_fault_irq
                0x00006964        0xc Debug/mash_pump.o
 .text.__disable_fault_irq
                0x00006970        0xc Debug/mash_pump.o
 .text.__NOP    0x0000697c        0xc Debug/mash_pump.o
 .text.__WFI    0x00006988        0xc Debug/mash_pump.o
 .text.__WFE    0x00006994        0xc Debug/mash_pump.o
 .text.__SEV    0x000069a0        0xc Debug/mash_pump.o
 .text.__ISB    0x000069ac       0x10 Debug/mash_pump.o
 .text.__DSB    0x000069bc       0x10 Debug/mash_pump.o
 .text.__DMB    0x000069cc       0x10 Debug/mash_pump.o
 .text.__CLREX  0x000069dc       0x10 Debug/mash_pump.o
 .text.NVIC_SetPriorityGrouping
                0x000069ec       0x4c Debug/mash_pump.o
 .text.NVIC_GetPriorityGrouping
                0x00006a38       0x1c Debug/mash_pump.o
 .text.NVIC_EnableIRQ
                0x00006a54       0x34 Debug/mash_pump.o
 .text.NVIC_DisableIRQ
                0x00006a88       0x38 Debug/mash_pump.o
 .text.NVIC_GetPendingIRQ
                0x00006ac0       0x4c Debug/mash_pump.o
 .text.NVIC_SetPendingIRQ
                0x00006b0c       0x38 Debug/mash_pump.o
 .text.NVIC_ClearPendingIRQ
                0x00006b44       0x38 Debug/mash_pump.o
 .text.NVIC_GetActive
                0x00006b7c       0x4c Debug/mash_pump.o
 .text.NVIC_SetPriority
                0x00006bc8       0x58 Debug/mash_pump.o
 .text.NVIC_GetPriority
                0x00006c20       0x54 Debug/mash_pump.o
 .text.NVIC_EncodePriority
                0x00006c74       0x7c Debug/mash_pump.o
 .text.NVIC_DecodePriority
                0x00006cf0       0x7c Debug/mash_pump.o
 .text.SysTick_Config
                0x00006d6c       0x54 Debug/mash_pump.o
 .text.NVIC_SystemReset
                0x00006dc0       0x24 Debug/mash_pump.o
 .text.ITM_SendChar
                0x00006de4       0x60 Debug/mash_pump.o
 .text.ITM_ReceiveChar
                0x00006e44       0x38 Debug/mash_pump.o
 .text.ITM_CheckChar
                0x00006e7c       0x28 Debug/mash_pump.o
 .text.vMashPumpInit
                0x00006ea4       0x70 Debug/mash_pump.o
                0x00006ea4                vMashPumpInit
 .text.vMashPump
                0x00006f14       0x3c Debug/mash_pump.o
                0x00006f14                vMashPump
 .text.vMashPumpApplet
                0x00006f50      0x140 Debug/mash_pump.o
                0x00006f50                vMashPumpApplet
 .text.vMashPumpAppletDisplay
                0x00007090      0x114 Debug/mash_pump.o
                0x00007090                vMashPumpAppletDisplay
 .text.iMashPumpKey
                0x000071a4       0xf8 Debug/mash_pump.o
                0x000071a4                iMashPumpKey
 .text          0x0000729c        0x0 Debug/mill.o
 .text.__enable_irq
                0x0000729c        0xc Debug/mill.o
 .text.__disable_irq
                0x000072a8        0xc Debug/mill.o
 .text.__enable_fault_irq
                0x000072b4        0xc Debug/mill.o
 .text.__disable_fault_irq
                0x000072c0        0xc Debug/mill.o
 .text.__NOP    0x000072cc        0xc Debug/mill.o
 .text.__WFI    0x000072d8        0xc Debug/mill.o
 .text.__WFE    0x000072e4        0xc Debug/mill.o
 .text.__SEV    0x000072f0        0xc Debug/mill.o
 .text.__ISB    0x000072fc       0x10 Debug/mill.o
 .text.__DSB    0x0000730c       0x10 Debug/mill.o
 .text.__DMB    0x0000731c       0x10 Debug/mill.o
 .text.__CLREX  0x0000732c       0x10 Debug/mill.o
 .text.NVIC_SetPriorityGrouping
                0x0000733c       0x4c Debug/mill.o
 .text.NVIC_GetPriorityGrouping
                0x00007388       0x1c Debug/mill.o
 .text.NVIC_EnableIRQ
                0x000073a4       0x34 Debug/mill.o
 .text.NVIC_DisableIRQ
                0x000073d8       0x38 Debug/mill.o
 .text.NVIC_GetPendingIRQ
                0x00007410       0x4c Debug/mill.o
 .text.NVIC_SetPendingIRQ
                0x0000745c       0x38 Debug/mill.o
 .text.NVIC_ClearPendingIRQ
                0x00007494       0x38 Debug/mill.o
 .text.NVIC_GetActive
                0x000074cc       0x4c Debug/mill.o
 .text.NVIC_SetPriority
                0x00007518       0x58 Debug/mill.o
 .text.NVIC_GetPriority
                0x00007570       0x54 Debug/mill.o
 .text.NVIC_EncodePriority
                0x000075c4       0x7c Debug/mill.o
 .text.NVIC_DecodePriority
                0x00007640       0x7c Debug/mill.o
 .text.SysTick_Config
                0x000076bc       0x54 Debug/mill.o
 .text.NVIC_SystemReset
                0x00007710       0x24 Debug/mill.o
 .text.ITM_SendChar
                0x00007734       0x60 Debug/mill.o
 .text.ITM_ReceiveChar
                0x00007794       0x38 Debug/mill.o
 .text.ITM_CheckChar
                0x000077cc       0x28 Debug/mill.o
 .text.vMillInit
                0x000077f4       0x7c Debug/mill.o
                0x000077f4                vMillInit
 .text.vMill    0x00007870       0x44 Debug/mill.o
                0x00007870                vMill
 .text.vMillApplet
                0x000078b4      0x140 Debug/mill.o
                0x000078b4                vMillApplet
 .text.vMillAppletDisplay
                0x000079f4      0x114 Debug/mill.o
                0x000079f4                vMillAppletDisplay
 .text.iMillKey
                0x00007b08       0xe4 Debug/mill.o
                0x00007b08                iMillKey
 .text          0x00007bec        0x0 Debug/boil.o
 .text.__enable_irq
                0x00007bec        0xc Debug/boil.o
 .text.__disable_irq
                0x00007bf8        0xc Debug/boil.o
 .text.__enable_fault_irq
                0x00007c04        0xc Debug/boil.o
 .text.__disable_fault_irq
                0x00007c10        0xc Debug/boil.o
 .text.__NOP    0x00007c1c        0xc Debug/boil.o
 .text.__WFI    0x00007c28        0xc Debug/boil.o
 .text.__WFE    0x00007c34        0xc Debug/boil.o
 .text.__SEV    0x00007c40        0xc Debug/boil.o
 .text.__ISB    0x00007c4c       0x10 Debug/boil.o
 .text.__DSB    0x00007c5c       0x10 Debug/boil.o
 .text.__DMB    0x00007c6c       0x10 Debug/boil.o
 .text.__CLREX  0x00007c7c       0x10 Debug/boil.o
 .text.NVIC_SetPriorityGrouping
                0x00007c8c       0x4c Debug/boil.o
 .text.NVIC_GetPriorityGrouping
                0x00007cd8       0x1c Debug/boil.o
 .text.NVIC_EnableIRQ
                0x00007cf4       0x34 Debug/boil.o
 .text.NVIC_DisableIRQ
                0x00007d28       0x38 Debug/boil.o
 .text.NVIC_GetPendingIRQ
                0x00007d60       0x4c Debug/boil.o
 .text.NVIC_SetPendingIRQ
                0x00007dac       0x38 Debug/boil.o
 .text.NVIC_ClearPendingIRQ
                0x00007de4       0x38 Debug/boil.o
 .text.NVIC_GetActive
                0x00007e1c       0x4c Debug/boil.o
 .text.NVIC_SetPriority
                0x00007e68       0x58 Debug/boil.o
 .text.NVIC_GetPriority
                0x00007ec0       0x54 Debug/boil.o
 .text.NVIC_EncodePriority
                0x00007f14       0x7c Debug/boil.o
 .text.NVIC_DecodePriority
                0x00007f90       0x7c Debug/boil.o
 .text.SysTick_Config
                0x0000800c       0x54 Debug/boil.o
 .text.NVIC_SystemReset
                0x00008060       0x24 Debug/boil.o
 .text.ITM_SendChar
                0x00008084       0x60 Debug/boil.o
 .text.ITM_ReceiveChar
                0x000080e4       0x38 Debug/boil.o
 .text.ITM_CheckChar
                0x0000811c       0x28 Debug/boil.o
 .text.vBoilInit
                0x00008144      0x188 Debug/boil.o
                0x00008144                vBoilInit
 .text.uGetBoilLevel
                0x000082cc       0x24 Debug/boil.o
                0x000082cc                uGetBoilLevel
 .text.vTaskBoil
                0x000082f0      0x288 Debug/boil.o
                0x000082f0                vTaskBoil
 .text.vBoilApplet
                0x00008578      0x1d4 Debug/boil.o
                0x00008578                vBoilApplet
 .text.vBoilAppletDisplay
                0x0000874c      0x1b4 Debug/boil.o
                0x0000874c                vBoilAppletDisplay
 .text.iBoilKey
                0x00008900      0x1d0 Debug/boil.o
                0x00008900                iBoilKey
 .text          0x00008ad0        0x0 Debug/hop_dropper.o
 .text.__enable_irq
                0x00008ad0        0xc Debug/hop_dropper.o
 .text.__disable_irq
                0x00008adc        0xc Debug/hop_dropper.o
 .text.__enable_fault_irq
                0x00008ae8        0xc Debug/hop_dropper.o
 .text.__disable_fault_irq
                0x00008af4        0xc Debug/hop_dropper.o
 .text.__NOP    0x00008b00        0xc Debug/hop_dropper.o
 .text.__WFI    0x00008b0c        0xc Debug/hop_dropper.o
 .text.__WFE    0x00008b18        0xc Debug/hop_dropper.o
 .text.__SEV    0x00008b24        0xc Debug/hop_dropper.o
 .text.__ISB    0x00008b30       0x10 Debug/hop_dropper.o
 .text.__DSB    0x00008b40       0x10 Debug/hop_dropper.o
 .text.__DMB    0x00008b50       0x10 Debug/hop_dropper.o
 .text.__CLREX  0x00008b60       0x10 Debug/hop_dropper.o
 .text.NVIC_SetPriorityGrouping
                0x00008b70       0x4c Debug/hop_dropper.o
 .text.NVIC_GetPriorityGrouping
                0x00008bbc       0x1c Debug/hop_dropper.o
 .text.NVIC_EnableIRQ
                0x00008bd8       0x34 Debug/hop_dropper.o
 .text.NVIC_DisableIRQ
                0x00008c0c       0x38 Debug/hop_dropper.o
 .text.NVIC_GetPendingIRQ
                0x00008c44       0x4c Debug/hop_dropper.o
 .text.NVIC_SetPendingIRQ
                0x00008c90       0x38 Debug/hop_dropper.o
 .text.NVIC_ClearPendingIRQ
                0x00008cc8       0x38 Debug/hop_dropper.o
 .text.NVIC_GetActive
                0x00008d00       0x4c Debug/hop_dropper.o
 .text.NVIC_SetPriority
                0x00008d4c       0x58 Debug/hop_dropper.o
 .text.NVIC_GetPriority
                0x00008da4       0x54 Debug/hop_dropper.o
 .text.NVIC_EncodePriority
                0x00008df8       0x7c Debug/hop_dropper.o
 .text.NVIC_DecodePriority
                0x00008e74       0x7c Debug/hop_dropper.o
 .text.SysTick_Config
                0x00008ef0       0x54 Debug/hop_dropper.o
 .text.NVIC_SystemReset
                0x00008f44       0x24 Debug/hop_dropper.o
 .text.ITM_SendChar
                0x00008f68       0x60 Debug/hop_dropper.o
 .text.ITM_ReceiveChar
                0x00008fc8       0x38 Debug/hop_dropper.o
 .text.ITM_CheckChar
                0x00009000       0x28 Debug/hop_dropper.o
 .text.vHopsInit
                0x00009028       0x70 Debug/hop_dropper.o
                0x00009028                vHopsInit
 .text.vHopsDrive
                0x00009098       0x34 Debug/hop_dropper.o
                0x00009098                vHopsDrive
 .text.uDebounce
                0x000090cc       0x58 Debug/hop_dropper.o
 .text.vTaskHops
                0x00009124      0x110 Debug/hop_dropper.o
                0x00009124                vTaskHops
 .text.vHopDropperAppletDisplay
                0x00009234      0x170 Debug/hop_dropper.o
                0x00009234                vHopDropperAppletDisplay
 .text.vHopDropperApplet
                0x000093a4       0xf4 Debug/hop_dropper.o
                0x000093a4                vHopDropperApplet
 .text.iHopDropperKey
                0x00009498      0x108 Debug/hop_dropper.o
                0x00009498                iHopDropperKey
 .text          0x000095a0        0x0 Debug/stir.o
 .text.__enable_irq
                0x000095a0        0xc Debug/stir.o
 .text.__disable_irq
                0x000095ac        0xc Debug/stir.o
 .text.__enable_fault_irq
                0x000095b8        0xc Debug/stir.o
 .text.__disable_fault_irq
                0x000095c4        0xc Debug/stir.o
 .text.__NOP    0x000095d0        0xc Debug/stir.o
 .text.__WFI    0x000095dc        0xc Debug/stir.o
 .text.__WFE    0x000095e8        0xc Debug/stir.o
 .text.__SEV    0x000095f4        0xc Debug/stir.o
 .text.__ISB    0x00009600       0x10 Debug/stir.o
 .text.__DSB    0x00009610       0x10 Debug/stir.o
 .text.__DMB    0x00009620       0x10 Debug/stir.o
 .text.__CLREX  0x00009630       0x10 Debug/stir.o
 .text.NVIC_SetPriorityGrouping
                0x00009640       0x4c Debug/stir.o
 .text.NVIC_GetPriorityGrouping
                0x0000968c       0x1c Debug/stir.o
 .text.NVIC_EnableIRQ
                0x000096a8       0x34 Debug/stir.o
 .text.NVIC_DisableIRQ
                0x000096dc       0x38 Debug/stir.o
 .text.NVIC_GetPendingIRQ
                0x00009714       0x4c Debug/stir.o
 .text.NVIC_SetPendingIRQ
                0x00009760       0x38 Debug/stir.o
 .text.NVIC_ClearPendingIRQ
                0x00009798       0x38 Debug/stir.o
 .text.NVIC_GetActive
                0x000097d0       0x4c Debug/stir.o
 .text.NVIC_SetPriority
                0x0000981c       0x58 Debug/stir.o
 .text.NVIC_GetPriority
                0x00009874       0x54 Debug/stir.o
 .text.NVIC_EncodePriority
                0x000098c8       0x7c Debug/stir.o
 .text.NVIC_DecodePriority
                0x00009944       0x7c Debug/stir.o
 .text.SysTick_Config
                0x000099c0       0x54 Debug/stir.o
 .text.NVIC_SystemReset
                0x00009a14       0x24 Debug/stir.o
 .text.ITM_SendChar
                0x00009a38       0x60 Debug/stir.o
 .text.ITM_ReceiveChar
                0x00009a98       0x38 Debug/stir.o
 .text.ITM_CheckChar
                0x00009ad0       0x28 Debug/stir.o
 .text.vStirInit
                0x00009af8       0x54 Debug/stir.o
                0x00009af8                vStirInit
 .text.vStir    0x00009b4c       0x3c Debug/stir.o
                0x00009b4c                vStir
 .text.xGetStirState
                0x00009b88       0x18 Debug/stir.o
                0x00009b88                xGetStirState
 .text          0x00009ba0        0x0 Debug/stirApplet.o
 .text.__enable_irq
                0x00009ba0        0xc Debug/stirApplet.o
 .text.__disable_irq
                0x00009bac        0xc Debug/stirApplet.o
 .text.__enable_fault_irq
                0x00009bb8        0xc Debug/stirApplet.o
 .text.__disable_fault_irq
                0x00009bc4        0xc Debug/stirApplet.o
 .text.__NOP    0x00009bd0        0xc Debug/stirApplet.o
 .text.__WFI    0x00009bdc        0xc Debug/stirApplet.o
 .text.__WFE    0x00009be8        0xc Debug/stirApplet.o
 .text.__SEV    0x00009bf4        0xc Debug/stirApplet.o
 .text.__ISB    0x00009c00       0x10 Debug/stirApplet.o
 .text.__DSB    0x00009c10       0x10 Debug/stirApplet.o
 .text.__DMB    0x00009c20       0x10 Debug/stirApplet.o
 .text.__CLREX  0x00009c30       0x10 Debug/stirApplet.o
 .text.NVIC_SetPriorityGrouping
                0x00009c40       0x4c Debug/stirApplet.o
 .text.NVIC_GetPriorityGrouping
                0x00009c8c       0x1c Debug/stirApplet.o
 .text.NVIC_EnableIRQ
                0x00009ca8       0x34 Debug/stirApplet.o
 .text.NVIC_DisableIRQ
                0x00009cdc       0x38 Debug/stirApplet.o
 .text.NVIC_GetPendingIRQ
                0x00009d14       0x4c Debug/stirApplet.o
 .text.NVIC_SetPendingIRQ
                0x00009d60       0x38 Debug/stirApplet.o
 .text.NVIC_ClearPendingIRQ
                0x00009d98       0x38 Debug/stirApplet.o
 .text.NVIC_GetActive
                0x00009dd0       0x4c Debug/stirApplet.o
 .text.NVIC_SetPriority
                0x00009e1c       0x58 Debug/stirApplet.o
 .text.NVIC_GetPriority
                0x00009e74       0x54 Debug/stirApplet.o
 .text.NVIC_EncodePriority
                0x00009ec8       0x7c Debug/stirApplet.o
 .text.NVIC_DecodePriority
                0x00009f44       0x7c Debug/stirApplet.o
 .text.SysTick_Config
                0x00009fc0       0x54 Debug/stirApplet.o
 .text.NVIC_SystemReset
                0x0000a014       0x24 Debug/stirApplet.o
 .text.ITM_SendChar
                0x0000a038       0x60 Debug/stirApplet.o
 .text.ITM_ReceiveChar
                0x0000a098       0x38 Debug/stirApplet.o
 .text.ITM_CheckChar
                0x0000a0d0       0x28 Debug/stirApplet.o
 .text.vStirApplet
                0x0000a0f8      0x140 Debug/stirApplet.o
                0x0000a0f8                vStirApplet
 .text.vStirAppletDisplay
                0x0000a238      0x114 Debug/stirApplet.o
                0x0000a238                vStirAppletDisplay
 .text.iStirKey
                0x0000a34c       0xe4 Debug/stirApplet.o
                0x0000a34c                iStirKey
 .text          0x0000a430        0x0 Debug/menu.o
 .text.menu_run_callback
                0x0000a430       0x64 Debug/menu.o
 .text.menu_get_selected
                0x0000a494       0xd4 Debug/menu.o
 .text.menu_paint_cell
                0x0000a568      0x134 Debug/menu.o
 .text.menu_two_column
                0x0000a69c      0x108 Debug/menu.o
 .text.menu_update
                0x0000a7a4      0x170 Debug/menu.o
 .text.menu_set_root
                0x0000a914       0x20 Debug/menu.o
                0x0000a914                menu_set_root
 .text.menu_back_after_applet
                0x0000a934       0x6c Debug/menu.o
 .text.menu_command
                0x0000a9a0       0x34 Debug/menu.o
                0x0000a9a0                menu_command
 .text.menu_touch
                0x0000a9d4      0x2fc Debug/menu.o
                0x0000a9d4                menu_touch
 .text.menu_clear
                0x0000acd0       0x10 Debug/menu.o
                0x0000acd0                menu_clear
 .text          0x0000ace0        0x0 Debug/valves.o
 .text.__enable_irq
                0x0000ace0        0xc Debug/valves.o
 .text.__disable_irq
                0x0000acec        0xc Debug/valves.o
 .text.__enable_fault_irq
                0x0000acf8        0xc Debug/valves.o
 .text.__disable_fault_irq
                0x0000ad04        0xc Debug/valves.o
 .text.__NOP    0x0000ad10        0xc Debug/valves.o
 .text.__WFI    0x0000ad1c        0xc Debug/valves.o
 .text.__WFE    0x0000ad28        0xc Debug/valves.o
 .text.__SEV    0x0000ad34        0xc Debug/valves.o
 .text.__ISB    0x0000ad40       0x10 Debug/valves.o
 .text.__DSB    0x0000ad50       0x10 Debug/valves.o
 .text.__DMB    0x0000ad60       0x10 Debug/valves.o
 .text.__CLREX  0x0000ad70       0x10 Debug/valves.o
 .text.NVIC_SetPriorityGrouping
                0x0000ad80       0x4c Debug/valves.o
 .text.NVIC_GetPriorityGrouping
                0x0000adcc       0x1c Debug/valves.o
 .text.NVIC_EnableIRQ
                0x0000ade8       0x34 Debug/valves.o
 .text.NVIC_DisableIRQ
                0x0000ae1c       0x38 Debug/valves.o
 .text.NVIC_GetPendingIRQ
                0x0000ae54       0x4c Debug/valves.o
 .text.NVIC_SetPendingIRQ
                0x0000aea0       0x38 Debug/valves.o
 .text.NVIC_ClearPendingIRQ
                0x0000aed8       0x38 Debug/valves.o
 .text.NVIC_GetActive
                0x0000af10       0x4c Debug/valves.o
 .text.NVIC_SetPriority
                0x0000af5c       0x58 Debug/valves.o
 .text.NVIC_GetPriority
                0x0000afb4       0x54 Debug/valves.o
 .text.NVIC_EncodePriority
                0x0000b008       0x7c Debug/valves.o
 .text.NVIC_DecodePriority
                0x0000b084       0x7c Debug/valves.o
 .text.SysTick_Config
                0x0000b100       0x54 Debug/valves.o
 .text.NVIC_SystemReset
                0x0000b154       0x24 Debug/valves.o
 .text.ITM_SendChar
                0x0000b178       0x60 Debug/valves.o
 .text.ITM_ReceiveChar
                0x0000b1d8       0x38 Debug/valves.o
 .text.ITM_CheckChar
                0x0000b210       0x28 Debug/valves.o
 .text.vValvesInit
                0x0000b238       0xec Debug/valves.o
                0x0000b238                vValvesInit
 .text.vValveActuate
                0x0000b324      0x15c Debug/valves.o
                0x0000b324                vValveActuate
 .text.vValvesApplet
                0x0000b480      0x3b8 Debug/valves.o
                0x0000b480                vValvesApplet
 .text.vValvesAppletDisplay
                0x0000b838      0x650 Debug/valves.o
                0x0000b838                vValvesAppletDisplay
 .text.iValvesKey
                0x0000be88      0x160 Debug/valves.o
                0x0000be88                iValvesKey
 .text          0x0000bfe8        0x0 Debug/diag_temps.o
 .text.__enable_irq
                0x0000bfe8        0xc Debug/diag_temps.o
 .text.__disable_irq
                0x0000bff4        0xc Debug/diag_temps.o
 .text.__enable_fault_irq
                0x0000c000        0xc Debug/diag_temps.o
 .text.__disable_fault_irq
                0x0000c00c        0xc Debug/diag_temps.o
 .text.__NOP    0x0000c018        0xc Debug/diag_temps.o
 .text.__WFI    0x0000c024        0xc Debug/diag_temps.o
 .text.__WFE    0x0000c030        0xc Debug/diag_temps.o
 .text.__SEV    0x0000c03c        0xc Debug/diag_temps.o
 .text.__ISB    0x0000c048       0x10 Debug/diag_temps.o
 .text.__DSB    0x0000c058       0x10 Debug/diag_temps.o
 .text.__DMB    0x0000c068       0x10 Debug/diag_temps.o
 .text.__CLREX  0x0000c078       0x10 Debug/diag_temps.o
 .text.NVIC_SetPriorityGrouping
                0x0000c088       0x4c Debug/diag_temps.o
 .text.NVIC_GetPriorityGrouping
                0x0000c0d4       0x1c Debug/diag_temps.o
 .text.NVIC_EnableIRQ
                0x0000c0f0       0x34 Debug/diag_temps.o
 .text.NVIC_DisableIRQ
                0x0000c124       0x38 Debug/diag_temps.o
 .text.NVIC_GetPendingIRQ
                0x0000c15c       0x4c Debug/diag_temps.o
 .text.NVIC_SetPendingIRQ
                0x0000c1a8       0x38 Debug/diag_temps.o
 .text.NVIC_ClearPendingIRQ
                0x0000c1e0       0x38 Debug/diag_temps.o
 .text.NVIC_GetActive
                0x0000c218       0x4c Debug/diag_temps.o
 .text.NVIC_SetPriority
                0x0000c264       0x58 Debug/diag_temps.o
 .text.NVIC_GetPriority
                0x0000c2bc       0x54 Debug/diag_temps.o
 .text.NVIC_EncodePriority
                0x0000c310       0x7c Debug/diag_temps.o
 .text.NVIC_DecodePriority
                0x0000c38c       0x7c Debug/diag_temps.o
 .text.SysTick_Config
                0x0000c408       0x54 Debug/diag_temps.o
 .text.NVIC_SystemReset
                0x0000c45c       0x24 Debug/diag_temps.o
 .text.ITM_SendChar
                0x0000c480       0x60 Debug/diag_temps.o
 .text.ITM_ReceiveChar
                0x0000c4e0       0x38 Debug/diag_temps.o
 .text.ITM_CheckChar
                0x0000c518       0x28 Debug/diag_temps.o
 .text.vDiagTempsInit
                0x0000c540       0x3c Debug/diag_temps.o
                0x0000c540                vDiagTempsInit
 .text.vDS1820DiagApplet
                0x0000c57c       0x4c Debug/diag_temps.o
                0x0000c57c                vDS1820DiagApplet
 .text.DS1820DiagKey
                0x0000c5c8       0x78 Debug/diag_temps.o
                0x0000c5c8                DS1820DiagKey
 .text.vTaskDS1820DisplayTemps
                0x0000c640      0x3a8 Debug/diag_temps.o
                0x0000c640                vTaskDS1820DisplayTemps
 .text          0x0000c9e8        0x0 Debug/crane.o
 .text.__enable_irq
                0x0000c9e8        0xc Debug/crane.o
 .text.__disable_irq
                0x0000c9f4        0xc Debug/crane.o
 .text.__enable_fault_irq
                0x0000ca00        0xc Debug/crane.o
 .text.__disable_fault_irq
                0x0000ca0c        0xc Debug/crane.o
 .text.__NOP    0x0000ca18        0xc Debug/crane.o
 .text.__WFI    0x0000ca24        0xc Debug/crane.o
 .text.__WFE    0x0000ca30        0xc Debug/crane.o
 .text.__SEV    0x0000ca3c        0xc Debug/crane.o
 .text.__ISB    0x0000ca48       0x10 Debug/crane.o
 .text.__DSB    0x0000ca58       0x10 Debug/crane.o
 .text.__DMB    0x0000ca68       0x10 Debug/crane.o
 .text.__CLREX  0x0000ca78       0x10 Debug/crane.o
 .text.NVIC_SetPriorityGrouping
                0x0000ca88       0x4c Debug/crane.o
 .text.NVIC_GetPriorityGrouping
                0x0000cad4       0x1c Debug/crane.o
 .text.NVIC_EnableIRQ
                0x0000caf0       0x34 Debug/crane.o
 .text.NVIC_DisableIRQ
                0x0000cb24       0x38 Debug/crane.o
 .text.NVIC_GetPendingIRQ
                0x0000cb5c       0x4c Debug/crane.o
 .text.NVIC_SetPendingIRQ
                0x0000cba8       0x38 Debug/crane.o
 .text.NVIC_ClearPendingIRQ
                0x0000cbe0       0x38 Debug/crane.o
 .text.NVIC_GetActive
                0x0000cc18       0x4c Debug/crane.o
 .text.NVIC_SetPriority
                0x0000cc64       0x58 Debug/crane.o
 .text.NVIC_GetPriority
                0x0000ccbc       0x54 Debug/crane.o
 .text.NVIC_EncodePriority
                0x0000cd10       0x7c Debug/crane.o
 .text.NVIC_DecodePriority
                0x0000cd8c       0x7c Debug/crane.o
 .text.SysTick_Config
                0x0000ce08       0x54 Debug/crane.o
 .text.NVIC_SystemReset
                0x0000ce5c       0x24 Debug/crane.o
 .text.ITM_SendChar
                0x0000ce80       0x60 Debug/crane.o
 .text.ITM_ReceiveChar
                0x0000cee0       0x38 Debug/crane.o
 .text.ITM_CheckChar
                0x0000cf18       0x28 Debug/crane.o
 .text.vCraneInit
                0x0000cf40       0x8c Debug/crane.o
                0x0000cf40                vCraneInit
 .text.vCraneFunc
                0x0000cfcc       0x6c Debug/crane.o
                0x0000cfcc                vCraneFunc
 .text.vTaskCrane
                0x0000d038      0x770 Debug/crane.o
                0x0000d038                vTaskCrane
 .text.vCraneAppletDisplay
                0x0000d7a8      0x238 Debug/crane.o
                0x0000d7a8                vCraneAppletDisplay
 .text.vCraneApplet
                0x0000d9e0      0x18c Debug/crane.o
                0x0000d9e0                vCraneApplet
 .text.iCraneKey
                0x0000db6c      0x16c Debug/crane.o
                0x0000db6c                iCraneKey
 .text          0x0000dcd8        0x0 Debug/speaker.o
 .text.__enable_irq
                0x0000dcd8        0xc Debug/speaker.o
 .text.__disable_irq
                0x0000dce4        0xc Debug/speaker.o
 .text.__enable_fault_irq
                0x0000dcf0        0xc Debug/speaker.o
 .text.__disable_fault_irq
                0x0000dcfc        0xc Debug/speaker.o
 .text.__NOP    0x0000dd08        0xc Debug/speaker.o
 .text.__WFI    0x0000dd14        0xc Debug/speaker.o
 .text.__WFE    0x0000dd20        0xc Debug/speaker.o
 .text.__SEV    0x0000dd2c        0xc Debug/speaker.o
 .text.__ISB    0x0000dd38       0x10 Debug/speaker.o
 .text.__DSB    0x0000dd48       0x10 Debug/speaker.o
 .text.__DMB    0x0000dd58       0x10 Debug/speaker.o
 .text.__CLREX  0x0000dd68       0x10 Debug/speaker.o
 .text.NVIC_SetPriorityGrouping
                0x0000dd78       0x4c Debug/speaker.o
 .text.NVIC_GetPriorityGrouping
                0x0000ddc4       0x1c Debug/speaker.o
 .text.NVIC_EnableIRQ
                0x0000dde0       0x34 Debug/speaker.o
 .text.NVIC_DisableIRQ
                0x0000de14       0x38 Debug/speaker.o
 .text.NVIC_GetPendingIRQ
                0x0000de4c       0x4c Debug/speaker.o
 .text.NVIC_SetPendingIRQ
                0x0000de98       0x38 Debug/speaker.o
 .text.NVIC_ClearPendingIRQ
                0x0000ded0       0x38 Debug/speaker.o
 .text.NVIC_GetActive
                0x0000df08       0x4c Debug/speaker.o
 .text.NVIC_SetPriority
                0x0000df54       0x58 Debug/speaker.o
 .text.NVIC_GetPriority
                0x0000dfac       0x54 Debug/speaker.o
 .text.NVIC_EncodePriority
                0x0000e000       0x7c Debug/speaker.o
 .text.NVIC_DecodePriority
                0x0000e07c       0x7c Debug/speaker.o
 .text.SysTick_Config
                0x0000e0f8       0x54 Debug/speaker.o
 .text.NVIC_SystemReset
                0x0000e14c       0x24 Debug/speaker.o
 .text.ITM_SendChar
                0x0000e170       0x60 Debug/speaker.o
 .text.ITM_ReceiveChar
                0x0000e1d0       0x38 Debug/speaker.o
 .text.ITM_CheckChar
                0x0000e208       0x28 Debug/speaker.o
 .text.speaker_init
                0x0000e230       0x30 Debug/speaker.o
                0x0000e230                speaker_init
 .text.beep     0x0000e260       0x58 Debug/speaker.o
 .text.vBeepTask
                0x0000e2b8       0x68 Debug/speaker.o
                0x0000e2b8                vBeepTask
 .text          0x0000e320        0x0 Debug/timer.o
 .text.__enable_irq
                0x0000e320        0xc Debug/timer.o
 .text.__disable_irq
                0x0000e32c        0xc Debug/timer.o
 .text.__enable_fault_irq
                0x0000e338        0xc Debug/timer.o
 .text.__disable_fault_irq
                0x0000e344        0xc Debug/timer.o
 .text.__NOP    0x0000e350        0xc Debug/timer.o
 .text.__WFI    0x0000e35c        0xc Debug/timer.o
 .text.__WFE    0x0000e368        0xc Debug/timer.o
 .text.__SEV    0x0000e374        0xc Debug/timer.o
 .text.__ISB    0x0000e380       0x10 Debug/timer.o
 .text.__DSB    0x0000e390       0x10 Debug/timer.o
 .text.__DMB    0x0000e3a0       0x10 Debug/timer.o
 .text.__CLREX  0x0000e3b0       0x10 Debug/timer.o
 .text.NVIC_SetPriorityGrouping
                0x0000e3c0       0x4c Debug/timer.o
 .text.NVIC_GetPriorityGrouping
                0x0000e40c       0x1c Debug/timer.o
 .text.NVIC_EnableIRQ
                0x0000e428       0x34 Debug/timer.o
 .text.NVIC_DisableIRQ
                0x0000e45c       0x38 Debug/timer.o
 .text.NVIC_GetPendingIRQ
                0x0000e494       0x4c Debug/timer.o
 .text.NVIC_SetPendingIRQ
                0x0000e4e0       0x38 Debug/timer.o
 .text.NVIC_ClearPendingIRQ
                0x0000e518       0x38 Debug/timer.o
 .text.NVIC_GetActive
                0x0000e550       0x4c Debug/timer.o
 .text.NVIC_SetPriority
                0x0000e59c       0x58 Debug/timer.o
 .text.NVIC_GetPriority
                0x0000e5f4       0x54 Debug/timer.o
 .text.NVIC_EncodePriority
                0x0000e648       0x7c Debug/timer.o
 .text.NVIC_DecodePriority
                0x0000e6c4       0x7c Debug/timer.o
 .text.SysTick_Config
                0x0000e740       0x54 Debug/timer.o
 .text.NVIC_SystemReset
                0x0000e794       0x24 Debug/timer.o
 .text.ITM_SendChar
                0x0000e7b8       0x60 Debug/timer.o
 .text.ITM_ReceiveChar
                0x0000e818       0x38 Debug/timer.o
 .text.ITM_CheckChar
                0x0000e850       0x28 Debug/timer.o
 .text.vSetupTimerTest
                0x0000e878       0xb0 Debug/timer.o
                0x0000e878                vSetupTimerTest
 .text.TIM3_IRQHandler
                0x0000e928       0x24 Debug/timer.o
                0x0000e928                TIM3_IRQHandler
 .text.vTimerSetupTask
                0x0000e94c       0x18 Debug/timer.o
                0x0000e94c                vTimerSetupTask
 .text          0x0000e964        0x0 Debug/ds1820.o
 .text.__enable_irq
                0x0000e964        0xc Debug/ds1820.o
 .text.__disable_irq
                0x0000e970        0xc Debug/ds1820.o
 .text.__enable_fault_irq
                0x0000e97c        0xc Debug/ds1820.o
 .text.__disable_fault_irq
                0x0000e988        0xc Debug/ds1820.o
 .text.__NOP    0x0000e994        0xc Debug/ds1820.o
 .text.__WFI    0x0000e9a0        0xc Debug/ds1820.o
 .text.__WFE    0x0000e9ac        0xc Debug/ds1820.o
 .text.__SEV    0x0000e9b8        0xc Debug/ds1820.o
 .text.__ISB    0x0000e9c4       0x10 Debug/ds1820.o
 .text.__DSB    0x0000e9d4       0x10 Debug/ds1820.o
 .text.__DMB    0x0000e9e4       0x10 Debug/ds1820.o
 .text.__CLREX  0x0000e9f4       0x10 Debug/ds1820.o
 .text.NVIC_SetPriorityGrouping
                0x0000ea04       0x4c Debug/ds1820.o
 .text.NVIC_GetPriorityGrouping
                0x0000ea50       0x1c Debug/ds1820.o
 .text.NVIC_EnableIRQ
                0x0000ea6c       0x34 Debug/ds1820.o
 .text.NVIC_DisableIRQ
                0x0000eaa0       0x38 Debug/ds1820.o
 .text.NVIC_GetPendingIRQ
                0x0000ead8       0x4c Debug/ds1820.o
 .text.NVIC_SetPendingIRQ
                0x0000eb24       0x38 Debug/ds1820.o
 .text.NVIC_ClearPendingIRQ
                0x0000eb5c       0x38 Debug/ds1820.o
 .text.NVIC_GetActive
                0x0000eb94       0x4c Debug/ds1820.o
 .text.NVIC_SetPriority
                0x0000ebe0       0x58 Debug/ds1820.o
 .text.NVIC_GetPriority
                0x0000ec38       0x54 Debug/ds1820.o
 .text.NVIC_EncodePriority
                0x0000ec8c       0x7c Debug/ds1820.o
 .text.NVIC_DecodePriority
                0x0000ed08       0x7c Debug/ds1820.o
 .text.SysTick_Config
                0x0000ed84       0x54 Debug/ds1820.o
 .text.NVIC_SystemReset
                0x0000edd8       0x24 Debug/ds1820.o
 .text.ITM_SendChar
                0x0000edfc       0x60 Debug/ds1820.o
 .text.ITM_ReceiveChar
                0x0000ee5c       0x38 Debug/ds1820.o
 .text.ITM_CheckChar
                0x0000ee94       0x28 Debug/ds1820.o
 .text.vTaskDS1820Convert
                0x0000eebc      0x390 Debug/ds1820.o
                0x0000eebc                vTaskDS1820Convert
 .text.ds1820_get_temp
                0x0000f24c       0x24 Debug/ds1820.o
                0x0000f24c                ds1820_get_temp
 .text.ds1820_error
                0x0000f270       0x6c Debug/ds1820.o
 .text.ds1820_search_key
                0x0000f2dc       0x2c Debug/ds1820.o
                0x0000f2dc                ds1820_search_key
 .text.delay_us
                0x0000f308       0x50 Debug/ds1820.o
 .text.ds1820_init
                0x0000f358       0xc0 Debug/ds1820.o
 .text.ds1820_reset
                0x0000f418       0x90 Debug/ds1820.o
 .text.ds1820_power_reset
                0x0000f4a8       0x2c Debug/ds1820.o
 .text.ds1820_write_bit
                0x0000f4d4       0x9c Debug/ds1820.o
 .text.ds1820_read_bit
                0x0000f570       0xa0 Debug/ds1820.o
 .text.ds1820_write_byte
                0x0000f610       0x60 Debug/ds1820.o
 .text.ds1820_read_byte
                0x0000f670       0x68 Debug/ds1820.o
 .text.ds1820_convert
                0x0000f6d8       0x64 Debug/ds1820.o
 .text.ds1820_search
                0x0000f73c       0x54 Debug/ds1820.o
 .text.ds1820_read_device
                0x0000f790      0x1e4 Debug/ds1820.o
 .text.ds1820_search_applet
                0x0000f974       0xc0 Debug/ds1820.o
                0x0000f974                ds1820_search_applet
 .text.ds1820_one_device_get_temp
                0x0000fa34       0xe0 Debug/ds1820.o
                0x0000fa34                ds1820_one_device_get_temp
 .text          0x0000fb14        0x0 Debug/Flow1.o
 .text.__enable_irq
                0x0000fb14        0xc Debug/Flow1.o
 .text.__disable_irq
                0x0000fb20        0xc Debug/Flow1.o
 .text.__enable_fault_irq
                0x0000fb2c        0xc Debug/Flow1.o
 .text.__disable_fault_irq
                0x0000fb38        0xc Debug/Flow1.o
 .text.__NOP    0x0000fb44        0xc Debug/Flow1.o
 .text.__WFI    0x0000fb50        0xc Debug/Flow1.o
 .text.__WFE    0x0000fb5c        0xc Debug/Flow1.o
 .text.__SEV    0x0000fb68        0xc Debug/Flow1.o
 .text.__ISB    0x0000fb74       0x10 Debug/Flow1.o
 .text.__DSB    0x0000fb84       0x10 Debug/Flow1.o
 .text.__DMB    0x0000fb94       0x10 Debug/Flow1.o
 .text.__CLREX  0x0000fba4       0x10 Debug/Flow1.o
 .text.NVIC_SetPriorityGrouping
                0x0000fbb4       0x4c Debug/Flow1.o
 .text.NVIC_GetPriorityGrouping
                0x0000fc00       0x1c Debug/Flow1.o
 .text.NVIC_EnableIRQ
                0x0000fc1c       0x34 Debug/Flow1.o
 .text.NVIC_DisableIRQ
                0x0000fc50       0x38 Debug/Flow1.o
 .text.NVIC_GetPendingIRQ
                0x0000fc88       0x4c Debug/Flow1.o
 .text.NVIC_SetPendingIRQ
                0x0000fcd4       0x38 Debug/Flow1.o
 .text.NVIC_ClearPendingIRQ
                0x0000fd0c       0x38 Debug/Flow1.o
 .text.NVIC_GetActive
                0x0000fd44       0x4c Debug/Flow1.o
 .text.NVIC_SetPriority
                0x0000fd90       0x58 Debug/Flow1.o
 .text.NVIC_GetPriority
                0x0000fde8       0x54 Debug/Flow1.o
 .text.NVIC_EncodePriority
                0x0000fe3c       0x7c Debug/Flow1.o
 .text.NVIC_DecodePriority
                0x0000feb8       0x7c Debug/Flow1.o
 .text.SysTick_Config
                0x0000ff34       0x54 Debug/Flow1.o
 .text.NVIC_SystemReset
                0x0000ff88       0x24 Debug/Flow1.o
 .text.ITM_SendChar
                0x0000ffac       0x60 Debug/Flow1.o
 .text.ITM_ReceiveChar
                0x0001000c       0x38 Debug/Flow1.o
 .text.ITM_CheckChar
                0x00010044       0x28 Debug/Flow1.o
 .text.vFlow1Init
                0x0001006c      0x10c Debug/Flow1.o
                0x0001006c                vFlow1Init
 .text.EXTI4_IRQHandler
                0x00010178       0x20 Debug/Flow1.o
                0x00010178                EXTI4_IRQHandler
 .text.EXTIX_IRQHandler
                0x00010198        0xc Debug/Flow1.o
                0x00010198                EXTIX_IRQHandler
 *fill*         0x000101a4        0x4 00
 .text.vTaskLitresToBoil
                0x000101a8      0x1e0 Debug/Flow1.o
                0x000101a8                vTaskLitresToBoil
 .text.vTaskLitresToMash
                0x00010388      0x170 Debug/Flow1.o
                0x00010388                vTaskLitresToMash
 .text.vResetFlow1
                0x000104f8       0x30 Debug/Flow1.o
                0x000104f8                vResetFlow1
 .text.vResetFlow2
                0x00010528       0x30 Debug/Flow1.o
                0x00010528                vResetFlow2
 .text.fGetBoilFlowLitres
                0x00010558       0x14 Debug/Flow1.o
                0x00010558                fGetBoilFlowLitres
 .text.fGetMashFlowLitres
                0x0001056c       0x14 Debug/Flow1.o
                0x0001056c                fGetMashFlowLitres
 .text.vFlow1Applet
                0x00010580      0x128 Debug/Flow1.o
                0x00010580                vFlow1Applet
 .text.vFlow1AppletDisplay
                0x000106a8      0x270 Debug/Flow1.o
                0x000106a8                vFlow1AppletDisplay
 .text.iFlow1Key
                0x00010918       0xd8 Debug/Flow1.o
                0x00010918                iFlow1Key
 .text          0x000109f0        0x0 Debug/diag_pwm.o
 .text.__enable_irq
                0x000109f0        0xc Debug/diag_pwm.o
 .text.__disable_irq
                0x000109fc        0xc Debug/diag_pwm.o
 .text.__enable_fault_irq
                0x00010a08        0xc Debug/diag_pwm.o
 .text.__disable_fault_irq
                0x00010a14        0xc Debug/diag_pwm.o
 .text.__NOP    0x00010a20        0xc Debug/diag_pwm.o
 .text.__WFI    0x00010a2c        0xc Debug/diag_pwm.o
 .text.__WFE    0x00010a38        0xc Debug/diag_pwm.o
 .text.__SEV    0x00010a44        0xc Debug/diag_pwm.o
 .text.__ISB    0x00010a50       0x10 Debug/diag_pwm.o
 .text.__DSB    0x00010a60       0x10 Debug/diag_pwm.o
 .text.__DMB    0x00010a70       0x10 Debug/diag_pwm.o
 .text.__CLREX  0x00010a80       0x10 Debug/diag_pwm.o
 .text.NVIC_SetPriorityGrouping
                0x00010a90       0x4c Debug/diag_pwm.o
 .text.NVIC_GetPriorityGrouping
                0x00010adc       0x1c Debug/diag_pwm.o
 .text.NVIC_EnableIRQ
                0x00010af8       0x34 Debug/diag_pwm.o
 .text.NVIC_DisableIRQ
                0x00010b2c       0x38 Debug/diag_pwm.o
 .text.NVIC_GetPendingIRQ
                0x00010b64       0x4c Debug/diag_pwm.o
 .text.NVIC_SetPendingIRQ
                0x00010bb0       0x38 Debug/diag_pwm.o
 .text.NVIC_ClearPendingIRQ
                0x00010be8       0x38 Debug/diag_pwm.o
 .text.NVIC_GetActive
                0x00010c20       0x4c Debug/diag_pwm.o
 .text.NVIC_SetPriority
                0x00010c6c       0x58 Debug/diag_pwm.o
 .text.NVIC_GetPriority
                0x00010cc4       0x54 Debug/diag_pwm.o
 .text.NVIC_EncodePriority
                0x00010d18       0x7c Debug/diag_pwm.o
 .text.NVIC_DecodePriority
                0x00010d94       0x7c Debug/diag_pwm.o
 .text.SysTick_Config
                0x00010e10       0x54 Debug/diag_pwm.o
 .text.NVIC_SystemReset
                0x00010e64       0x24 Debug/diag_pwm.o
 .text.ITM_SendChar
                0x00010e88       0x60 Debug/diag_pwm.o
 .text.ITM_ReceiveChar
                0x00010ee8       0x38 Debug/diag_pwm.o
 .text.ITM_CheckChar
                0x00010f20       0x28 Debug/diag_pwm.o
 .text.vDiagPWMInit
                0x00010f48       0x3c Debug/diag_pwm.o
                0x00010f48                vDiagPWMInit
 .text.vDiagPWMApplet
                0x00010f84      0x268 Debug/diag_pwm.o
                0x00010f84                vDiagPWMApplet
 .text.iDiagPWMKey
                0x000111ec      0x21c Debug/diag_pwm.o
                0x000111ec                iDiagPWMKey
 .text.vTaskDiagPWMApplet
                0x00011408      0x280 Debug/diag_pwm.o
                0x00011408                vTaskDiagPWMApplet
 .text          0x00011688        0x0 Debug/I2C-IO.o
 .text.__enable_irq
                0x00011688        0xc Debug/I2C-IO.o
 .text.__disable_irq
                0x00011694        0xc Debug/I2C-IO.o
 .text.__enable_fault_irq
                0x000116a0        0xc Debug/I2C-IO.o
 .text.__disable_fault_irq
                0x000116ac        0xc Debug/I2C-IO.o
 .text.__NOP    0x000116b8        0xc Debug/I2C-IO.o
 .text.__WFI    0x000116c4        0xc Debug/I2C-IO.o
 .text.__WFE    0x000116d0        0xc Debug/I2C-IO.o
 .text.__SEV    0x000116dc        0xc Debug/I2C-IO.o
 .text.__ISB    0x000116e8       0x10 Debug/I2C-IO.o
 .text.__DSB    0x000116f8       0x10 Debug/I2C-IO.o
 .text.__DMB    0x00011708       0x10 Debug/I2C-IO.o
 .text.__CLREX  0x00011718       0x10 Debug/I2C-IO.o
 .text.NVIC_SetPriorityGrouping
                0x00011728       0x4c Debug/I2C-IO.o
 .text.NVIC_GetPriorityGrouping
                0x00011774       0x1c Debug/I2C-IO.o
 .text.NVIC_EnableIRQ
                0x00011790       0x34 Debug/I2C-IO.o
 .text.NVIC_DisableIRQ
                0x000117c4       0x38 Debug/I2C-IO.o
 .text.NVIC_GetPendingIRQ
                0x000117fc       0x4c Debug/I2C-IO.o
 .text.NVIC_SetPendingIRQ
                0x00011848       0x38 Debug/I2C-IO.o
 .text.NVIC_ClearPendingIRQ
                0x00011880       0x38 Debug/I2C-IO.o
 .text.NVIC_GetActive
                0x000118b8       0x4c Debug/I2C-IO.o
 .text.NVIC_SetPriority
                0x00011904       0x58 Debug/I2C-IO.o
 .text.NVIC_GetPriority
                0x0001195c       0x54 Debug/I2C-IO.o
 .text.NVIC_EncodePriority
                0x000119b0       0x7c Debug/I2C-IO.o
 .text.NVIC_DecodePriority
                0x00011a2c       0x7c Debug/I2C-IO.o
 .text.SysTick_Config
                0x00011aa8       0x54 Debug/I2C-IO.o
 .text.NVIC_SystemReset
                0x00011afc       0x24 Debug/I2C-IO.o
 .text.ITM_SendChar
                0x00011b20       0x60 Debug/I2C-IO.o
 .text.ITM_ReceiveChar
                0x00011b80       0x38 Debug/I2C-IO.o
 .text.ITM_CheckChar
                0x00011bb8       0x28 Debug/I2C-IO.o
 .text.vI2C_Init
                0x00011be0       0xfc Debug/I2C-IO.o
                0x00011be0                vI2C_Init
 .text.iI2C_Send
                0x00011cdc      0x19c Debug/I2C-IO.o
 .text.iI2C_Receive
                0x00011e78      0x178 Debug/I2C-IO.o
 .text.vI2C_TestTask
                0x00011ff0      0x178 Debug/I2C-IO.o
                0x00011ff0                vI2C_TestTask
 .text.vI2C_SendTask
                0x00012168      0x21c Debug/I2C-IO.o
                0x00012168                vI2C_SendTask
 .text.vPCF_ResetBits
                0x00012384       0x70 Debug/I2C-IO.o
                0x00012384                vPCF_ResetBits
 .text.vPCF_SetBits
                0x000123f4       0x7c Debug/I2C-IO.o
                0x000123f4                vPCF_SetBits
 .text.cI2cGetInput
                0x00012470       0x54 Debug/I2C-IO.o
                0x00012470                cI2cGetInput
 .text          0x000124c4        0x0 Debug/chiller_pump.o
 .text.__enable_irq
                0x000124c4        0xc Debug/chiller_pump.o
 .text.__disable_irq
                0x000124d0        0xc Debug/chiller_pump.o
 .text.__enable_fault_irq
                0x000124dc        0xc Debug/chiller_pump.o
 .text.__disable_fault_irq
                0x000124e8        0xc Debug/chiller_pump.o
 .text.__NOP    0x000124f4        0xc Debug/chiller_pump.o
 .text.__WFI    0x00012500        0xc Debug/chiller_pump.o
 .text.__WFE    0x0001250c        0xc Debug/chiller_pump.o
 .text.__SEV    0x00012518        0xc Debug/chiller_pump.o
 .text.__ISB    0x00012524       0x10 Debug/chiller_pump.o
 .text.__DSB    0x00012534       0x10 Debug/chiller_pump.o
 .text.__DMB    0x00012544       0x10 Debug/chiller_pump.o
 .text.__CLREX  0x00012554       0x10 Debug/chiller_pump.o
 .text.NVIC_SetPriorityGrouping
                0x00012564       0x4c Debug/chiller_pump.o
 .text.NVIC_GetPriorityGrouping
                0x000125b0       0x1c Debug/chiller_pump.o
 .text.NVIC_EnableIRQ
                0x000125cc       0x34 Debug/chiller_pump.o
 .text.NVIC_DisableIRQ
                0x00012600       0x38 Debug/chiller_pump.o
 .text.NVIC_GetPendingIRQ
                0x00012638       0x4c Debug/chiller_pump.o
 .text.NVIC_SetPendingIRQ
                0x00012684       0x38 Debug/chiller_pump.o
 .text.NVIC_ClearPendingIRQ
                0x000126bc       0x38 Debug/chiller_pump.o
 .text.NVIC_GetActive
                0x000126f4       0x4c Debug/chiller_pump.o
 .text.NVIC_SetPriority
                0x00012740       0x58 Debug/chiller_pump.o
 .text.NVIC_GetPriority
                0x00012798       0x54 Debug/chiller_pump.o
 .text.NVIC_EncodePriority
                0x000127ec       0x7c Debug/chiller_pump.o
 .text.NVIC_DecodePriority
                0x00012868       0x7c Debug/chiller_pump.o
 .text.SysTick_Config
                0x000128e4       0x54 Debug/chiller_pump.o
 .text.NVIC_SystemReset
                0x00012938       0x24 Debug/chiller_pump.o
 .text.ITM_SendChar
                0x0001295c       0x60 Debug/chiller_pump.o
 .text.ITM_ReceiveChar
                0x000129bc       0x38 Debug/chiller_pump.o
 .text.ITM_CheckChar
                0x000129f4       0x28 Debug/chiller_pump.o
 .text.vChillerPumpInit
                0x00012a1c       0xa0 Debug/chiller_pump.o
                0x00012a1c                vChillerPumpInit
 .text.vChillerPump
                0x00012abc       0x3c Debug/chiller_pump.o
                0x00012abc                vChillerPump
 .text.vChillerPumpApplet
                0x00012af8      0x14c Debug/chiller_pump.o
                0x00012af8                vChillerPumpApplet
 .text.vChillerPumpAppletDisplay
                0x00012c44      0x114 Debug/chiller_pump.o
                0x00012c44                vChillerPumpAppletDisplay
 .text.iChillerPumpKey
                0x00012d58       0xf8 Debug/chiller_pump.o
                0x00012d58                iChillerPumpKey
 .text          0x00012e50        0x0 Debug/console.o
 .text.__enable_irq
                0x00012e50        0xc Debug/console.o
 .text.__disable_irq
                0x00012e5c        0xc Debug/console.o
 .text.__enable_fault_irq
                0x00012e68        0xc Debug/console.o
 .text.__disable_fault_irq
                0x00012e74        0xc Debug/console.o
 .text.__NOP    0x00012e80        0xc Debug/console.o
 .text.__WFI    0x00012e8c        0xc Debug/console.o
 .text.__WFE    0x00012e98        0xc Debug/console.o
 .text.__SEV    0x00012ea4        0xc Debug/console.o
 .text.__ISB    0x00012eb0       0x10 Debug/console.o
 .text.__DSB    0x00012ec0       0x10 Debug/console.o
 .text.__DMB    0x00012ed0       0x10 Debug/console.o
 .text.__CLREX  0x00012ee0       0x10 Debug/console.o
 .text.NVIC_SetPriorityGrouping
                0x00012ef0       0x4c Debug/console.o
 .text.NVIC_GetPriorityGrouping
                0x00012f3c       0x1c Debug/console.o
 .text.NVIC_EnableIRQ
                0x00012f58       0x34 Debug/console.o
 .text.NVIC_DisableIRQ
                0x00012f8c       0x38 Debug/console.o
 .text.NVIC_GetPendingIRQ
                0x00012fc4       0x4c Debug/console.o
 .text.NVIC_SetPendingIRQ
                0x00013010       0x38 Debug/console.o
 .text.NVIC_ClearPendingIRQ
                0x00013048       0x38 Debug/console.o
 .text.NVIC_GetActive
                0x00013080       0x4c Debug/console.o
 .text.NVIC_SetPriority
                0x000130cc       0x58 Debug/console.o
 .text.NVIC_GetPriority
                0x00013124       0x54 Debug/console.o
 .text.NVIC_EncodePriority
                0x00013178       0x7c Debug/console.o
 .text.NVIC_DecodePriority
                0x000131f4       0x7c Debug/console.o
 .text.SysTick_Config
                0x00013270       0x54 Debug/console.o
 .text.NVIC_SystemReset
                0x000132c4       0x24 Debug/console.o
 .text.ITM_SendChar
                0x000132e8       0x60 Debug/console.o
 .text.ITM_ReceiveChar
                0x00013348       0x38 Debug/console.o
 .text.ITM_CheckChar
                0x00013380       0x28 Debug/console.o
 .text.vConsolePrintTask
                0x000133a8       0x50 Debug/console.o
                0x000133a8                vConsolePrintTask
 .text.vConsolePrint
                0x000133f8       0x4c Debug/console.o
                0x000133f8                vConsolePrint
 .text          0x00013444        0x0 Debug/brew.o
 .text.__enable_irq
                0x00013444        0xc Debug/brew.o
 .text.__disable_irq
                0x00013450        0xc Debug/brew.o
 .text.__enable_fault_irq
                0x0001345c        0xc Debug/brew.o
 .text.__disable_fault_irq
                0x00013468        0xc Debug/brew.o
 .text.__NOP    0x00013474        0xc Debug/brew.o
 .text.__WFI    0x00013480        0xc Debug/brew.o
 .text.__WFE    0x0001348c        0xc Debug/brew.o
 .text.__SEV    0x00013498        0xc Debug/brew.o
 .text.__ISB    0x000134a4       0x10 Debug/brew.o
 .text.__DSB    0x000134b4       0x10 Debug/brew.o
 .text.__DMB    0x000134c4       0x10 Debug/brew.o
 .text.__CLREX  0x000134d4       0x10 Debug/brew.o
 .text.NVIC_SetPriorityGrouping
                0x000134e4       0x4c Debug/brew.o
 .text.NVIC_GetPriorityGrouping
                0x00013530       0x1c Debug/brew.o
 .text.NVIC_EnableIRQ
                0x0001354c       0x34 Debug/brew.o
 .text.NVIC_DisableIRQ
                0x00013580       0x38 Debug/brew.o
 .text.NVIC_GetPendingIRQ
                0x000135b8       0x4c Debug/brew.o
 .text.NVIC_SetPendingIRQ
                0x00013604       0x38 Debug/brew.o
 .text.NVIC_ClearPendingIRQ
                0x0001363c       0x38 Debug/brew.o
 .text.NVIC_GetActive
                0x00013674       0x4c Debug/brew.o
 .text.NVIC_SetPriority
                0x000136c0       0x58 Debug/brew.o
 .text.NVIC_GetPriority
                0x00013718       0x54 Debug/brew.o
 .text.NVIC_EncodePriority
                0x0001376c       0x7c Debug/brew.o
 .text.NVIC_DecodePriority
                0x000137e8       0x7c Debug/brew.o
 .text.SysTick_Config
                0x00013864       0x54 Debug/brew.o
 .text.NVIC_SystemReset
                0x000138b8       0x24 Debug/brew.o
 .text.ITM_SendChar
                0x000138dc       0x60 Debug/brew.o
 .text.ITM_ReceiveChar
                0x0001393c       0x38 Debug/brew.o
 .text.ITM_CheckChar
                0x00013974       0x28 Debug/brew.o
 .text.iBrewStepMonitor
                0x0001399c      0x130 Debug/brew.o
 .text.iMaxBrewSteps
                0x00013acc       0x3c Debug/brew.o
 .text.vBrewTotalReset
                0x00013b08       0xc0 Debug/brew.o
                0x00013b08                vBrewTotalReset
 .text.ucGetBrewHoursElapsed
                0x00013bc8       0x18 Debug/brew.o
                0x00013bc8                ucGetBrewHoursElapsed
 .text.ucGetBrewMinutesElapsed
                0x00013be0       0x18 Debug/brew.o
                0x00013be0                ucGetBrewMinutesElapsed
 .text.ucGetBrewSecondsElapsed
                0x00013bf8       0x18 Debug/brew.o
                0x00013bf8                ucGetBrewSecondsElapsed
 .text.ucGetBrewStepMinutesElapsed
                0x00013c10       0x3c Debug/brew.o
                0x00013c10                ucGetBrewStepMinutesElapsed
 .text.ucGetBrewStepSecondsElapsed
                0x00013c4c       0x4c Debug/brew.o
                0x00013c4c                ucGetBrewStepSecondsElapsed
 .text.ucGetBrewStep
                0x00013c98       0x14 Debug/brew.o
                0x00013c98                ucGetBrewStep
 .text.vTaskBrew
                0x00013cac      0x2f4 Debug/brew.o
                0x00013cac                vTaskBrew
 .text.vBrewReset
                0x00013fa0       0xb8 Debug/brew.o
                0x00013fa0                vBrewReset
 .text.vBrewNextStep
                0x00014058      0x160 Debug/brew.o
                0x00014058                vBrewNextStep
 .text.vBrewRunStep
                0x000141b8       0xbc Debug/brew.o
                0x000141b8                vBrewRunStep
 .text.vBrewHLTSetupFunction
                0x00014274      0x20c Debug/brew.o
                0x00014274                vBrewHLTSetupFunction
 .text.vBrewMillSetupFunction
                0x00014480       0x24 Debug/brew.o
                0x00014480                vBrewMillSetupFunction
 .text.vBrewValvesSetupFunction
                0x000144a4       0x6c Debug/brew.o
                0x000144a4                vBrewValvesSetupFunction
 .text.vBrewBoilValveSetupFunction
                0x00014510       0x88 Debug/brew.o
                0x00014510                vBrewBoilValveSetupFunction
 .text.vBrewCraneSetupFunction
                0x00014598       0x80 Debug/brew.o
                0x00014598                vBrewCraneSetupFunction
 .text.vBrewPreChillSetupFunction
                0x00014618       0x70 Debug/brew.o
                0x00014618                vBrewPreChillSetupFunction
 .text.vBrewChillSetupFunction
                0x00014688       0x9c Debug/brew.o
                0x00014688                vBrewChillSetupFunction
 .text.vBrewPreChillPollFunction
                0x00014724       0xa8 Debug/brew.o
                0x00014724                vBrewPreChillPollFunction
 .text.vBrewChillPollFunction
                0x000147cc       0xe0 Debug/brew.o
                0x000147cc                vBrewChillPollFunction
 .text.vBrewMillPollFunction
                0x000148ac       0x74 Debug/brew.o
                0x000148ac                vBrewMillPollFunction
 .text.vBrewWaitingPollFunction
                0x00014920       0x58 Debug/brew.o
                0x00014920                vBrewWaitingPollFunction
 .text.vBrewMashOutSetupFunction
                0x00014978       0x98 Debug/brew.o
                0x00014978                vBrewMashOutSetupFunction
 .text.vBrewSpargeSetupFunction
                0x00014a10       0x98 Debug/brew.o
                0x00014a10                vBrewSpargeSetupFunction
 .text.vBrewMashSetupFunction
                0x00014aa8       0xf4 Debug/brew.o
                0x00014aa8                vBrewMashSetupFunction
 .text.vBrewMashPollFunction
                0x00014b9c      0x44c Debug/brew.o
                0x00014b9c                vBrewMashPollFunction
 .text.vBrewPumpToBoilSetupFunction
                0x00014fe8       0x74 Debug/brew.o
                0x00014fe8                vBrewPumpToBoilSetupFunction
 .text.vBrewPumpToBoilPollFunction
                0x0001505c       0x88 Debug/brew.o
                0x0001505c                vBrewPumpToBoilPollFunction
 .text.vBrewBoilSetupFunction
                0x000150e4      0x138 Debug/brew.o
                0x000150e4                vBrewBoilSetupFunction
 .text.vBrewBoilPollFunction
                0x0001521c      0x4dc Debug/brew.o
                0x0001521c                vBrewBoilPollFunction
 .text.vBrewApplet
                0x000156f8      0x50c Debug/brew.o
                0x000156f8                vBrewApplet
 .text.vBrewGraphAppletDisplay
                0x00015c04       0x3c Debug/brew.o
                0x00015c04                vBrewGraphAppletDisplay
 .text.vBrewStatsAppletDisplay
                0x00015c40       0x38 Debug/brew.o
                0x00015c40                vBrewStatsAppletDisplay
 .text.vBrewResAppletDisplay
                0x00015c78      0x20c Debug/brew.o
                0x00015c78                vBrewResAppletDisplay
 .text.vBrewAppletDisplay
                0x00015e84      0x728 Debug/brew.o
                0x00015e84                vBrewAppletDisplay
 .text.vBrewRemoteStart
                0x000165ac       0x34 Debug/brew.o
                0x000165ac                vBrewRemoteStart
 .text.uEvaluateTouch
                0x000165e0       0xfc Debug/brew.o
 .text.iBrewKey
                0x000166dc      0x9e4 Debug/brew.o
                0x000166dc                iBrewKey
 .text          0x000170c0        0x0 Debug/parameters.o
 .text.__enable_irq
                0x000170c0        0xc Debug/parameters.o
 .text.__disable_irq
                0x000170cc        0xc Debug/parameters.o
 .text.__enable_fault_irq
                0x000170d8        0xc Debug/parameters.o
 .text.__disable_fault_irq
                0x000170e4        0xc Debug/parameters.o
 .text.__NOP    0x000170f0        0xc Debug/parameters.o
 .text.__WFI    0x000170fc        0xc Debug/parameters.o
 .text.__WFE    0x00017108        0xc Debug/parameters.o
 .text.__SEV    0x00017114        0xc Debug/parameters.o
 .text.__ISB    0x00017120       0x10 Debug/parameters.o
 .text.__DSB    0x00017130       0x10 Debug/parameters.o
 .text.__DMB    0x00017140       0x10 Debug/parameters.o
 .text.__CLREX  0x00017150       0x10 Debug/parameters.o
 .text.NVIC_SetPriorityGrouping
                0x00017160       0x4c Debug/parameters.o
 .text.NVIC_GetPriorityGrouping
                0x000171ac       0x1c Debug/parameters.o
 .text.NVIC_EnableIRQ
                0x000171c8       0x34 Debug/parameters.o
 .text.NVIC_DisableIRQ
                0x000171fc       0x38 Debug/parameters.o
 .text.NVIC_GetPendingIRQ
                0x00017234       0x4c Debug/parameters.o
 .text.NVIC_SetPendingIRQ
                0x00017280       0x38 Debug/parameters.o
 .text.NVIC_ClearPendingIRQ
                0x000172b8       0x38 Debug/parameters.o
 .text.NVIC_GetActive
                0x000172f0       0x4c Debug/parameters.o
 .text.NVIC_SetPriority
                0x0001733c       0x58 Debug/parameters.o
 .text.NVIC_GetPriority
                0x00017394       0x54 Debug/parameters.o
 .text.NVIC_EncodePriority
                0x000173e8       0x7c Debug/parameters.o
 .text.NVIC_DecodePriority
                0x00017464       0x7c Debug/parameters.o
 .text.SysTick_Config
                0x000174e0       0x54 Debug/parameters.o
 .text.NVIC_SystemReset
                0x00017534       0x24 Debug/parameters.o
 .text.ITM_SendChar
                0x00017558       0x60 Debug/parameters.o
 .text.ITM_ReceiveChar
                0x000175b8       0x38 Debug/parameters.o
 .text.ITM_CheckChar
                0x000175f0       0x28 Debug/parameters.o
 .text.vParametersInit
                0x00017618      0x164 Debug/parameters.o
                0x00017618                vParametersInit
 .text.vParametersApplet
                0x0001777c      0x404 Debug/parameters.o
                0x0001777c                vParametersApplet
 .text.vParametersAppletDisplay
                0x00017b80      0x364 Debug/parameters.o
                0x00017b80                vParametersAppletDisplay
 .text.iParametersKey
                0x00017ee4      0x560 Debug/parameters.o
                0x00017ee4                iParametersKey
 .text          0x00018444        0x0 Debug/boil_valve.o
 .text.__enable_irq
                0x00018444        0xc Debug/boil_valve.o
 .text.__disable_irq
                0x00018450        0xc Debug/boil_valve.o
 .text.__enable_fault_irq
                0x0001845c        0xc Debug/boil_valve.o
 .text.__disable_fault_irq
                0x00018468        0xc Debug/boil_valve.o
 .text.__NOP    0x00018474        0xc Debug/boil_valve.o
 .text.__WFI    0x00018480        0xc Debug/boil_valve.o
 .text.__WFE    0x0001848c        0xc Debug/boil_valve.o
 .text.__SEV    0x00018498        0xc Debug/boil_valve.o
 .text.__ISB    0x000184a4       0x10 Debug/boil_valve.o
 .text.__DSB    0x000184b4       0x10 Debug/boil_valve.o
 .text.__DMB    0x000184c4       0x10 Debug/boil_valve.o
 .text.__CLREX  0x000184d4       0x10 Debug/boil_valve.o
 .text.NVIC_SetPriorityGrouping
                0x000184e4       0x4c Debug/boil_valve.o
 .text.NVIC_GetPriorityGrouping
                0x00018530       0x1c Debug/boil_valve.o
 .text.NVIC_EnableIRQ
                0x0001854c       0x34 Debug/boil_valve.o
 .text.NVIC_DisableIRQ
                0x00018580       0x38 Debug/boil_valve.o
 .text.NVIC_GetPendingIRQ
                0x000185b8       0x4c Debug/boil_valve.o
 .text.NVIC_SetPendingIRQ
                0x00018604       0x38 Debug/boil_valve.o
 .text.NVIC_ClearPendingIRQ
                0x0001863c       0x38 Debug/boil_valve.o
 .text.NVIC_GetActive
                0x00018674       0x4c Debug/boil_valve.o
 .text.NVIC_SetPriority
                0x000186c0       0x58 Debug/boil_valve.o
 .text.NVIC_GetPriority
                0x00018718       0x54 Debug/boil_valve.o
 .text.NVIC_EncodePriority
                0x0001876c       0x7c Debug/boil_valve.o
 .text.NVIC_DecodePriority
                0x000187e8       0x7c Debug/boil_valve.o
 .text.SysTick_Config
                0x00018864       0x54 Debug/boil_valve.o
 .text.NVIC_SystemReset
                0x000188b8       0x24 Debug/boil_valve.o
 .text.ITM_SendChar
                0x000188dc       0x60 Debug/boil_valve.o
 .text.ITM_ReceiveChar
                0x0001893c       0x38 Debug/boil_valve.o
 .text.ITM_CheckChar
                0x00018974       0x28 Debug/boil_valve.o
 .text.vBoilValveInit
                0x0001899c       0xb8 Debug/boil_valve.o
                0x0001899c                vBoilValveInit
 .text.vBoilValveFunc
                0x00018a54       0x6c Debug/boil_valve.o
                0x00018a54                vBoilValveFunc
 .text.vTaskBoilValve
                0x00018ac0      0x4a4 Debug/boil_valve.o
                0x00018ac0                vTaskBoilValve
 .text.vBoilValveAppletDisplay
                0x00018f64      0x234 Debug/boil_valve.o
                0x00018f64                vBoilValveAppletDisplay
 .text.vBoilValveApplet
                0x00019198      0x18c Debug/boil_valve.o
                0x00019198                vBoilValveApplet
 .text.iBoilValveKey
                0x00019324      0x17c Debug/boil_valve.o
                0x00019324                iBoilValveKey
 .text          0x000194a0        0x0 Debug/stf_syscalls_minimal.o
 .text.__enable_irq
                0x000194a0        0xc Debug/stf_syscalls_minimal.o
 .text.__disable_irq
                0x000194ac        0xc Debug/stf_syscalls_minimal.o
 .text.__enable_fault_irq
                0x000194b8        0xc Debug/stf_syscalls_minimal.o
 .text.__disable_fault_irq
                0x000194c4        0xc Debug/stf_syscalls_minimal.o
 .text.__NOP    0x000194d0        0xc Debug/stf_syscalls_minimal.o
 .text.__WFI    0x000194dc        0xc Debug/stf_syscalls_minimal.o
 .text.__WFE    0x000194e8        0xc Debug/stf_syscalls_minimal.o
 .text.__SEV    0x000194f4        0xc Debug/stf_syscalls_minimal.o
 .text.__ISB    0x00019500       0x10 Debug/stf_syscalls_minimal.o
 .text.__DSB    0x00019510       0x10 Debug/stf_syscalls_minimal.o
 .text.__DMB    0x00019520       0x10 Debug/stf_syscalls_minimal.o
 .text.__CLREX  0x00019530       0x10 Debug/stf_syscalls_minimal.o
 .text.NVIC_SetPriorityGrouping
                0x00019540       0x4c Debug/stf_syscalls_minimal.o
 .text.NVIC_GetPriorityGrouping
                0x0001958c       0x1c Debug/stf_syscalls_minimal.o
 .text.NVIC_EnableIRQ
                0x000195a8       0x34 Debug/stf_syscalls_minimal.o
 .text.NVIC_DisableIRQ
                0x000195dc       0x38 Debug/stf_syscalls_minimal.o
 .text.NVIC_GetPendingIRQ
                0x00019614       0x4c Debug/stf_syscalls_minimal.o
 .text.NVIC_SetPendingIRQ
                0x00019660       0x38 Debug/stf_syscalls_minimal.o
 .text.NVIC_ClearPendingIRQ
                0x00019698       0x38 Debug/stf_syscalls_minimal.o
 .text.NVIC_GetActive
                0x000196d0       0x4c Debug/stf_syscalls_minimal.o
 .text.NVIC_SetPriority
                0x0001971c       0x58 Debug/stf_syscalls_minimal.o
 .text.NVIC_GetPriority
                0x00019774       0x54 Debug/stf_syscalls_minimal.o
 .text.NVIC_EncodePriority
                0x000197c8       0x7c Debug/stf_syscalls_minimal.o
 .text.NVIC_DecodePriority
                0x00019844       0x7c Debug/stf_syscalls_minimal.o
 .text.SysTick_Config
                0x000198c0       0x54 Debug/stf_syscalls_minimal.o
 .text.NVIC_SystemReset
                0x00019914       0x24 Debug/stf_syscalls_minimal.o
 .text.ITM_SendChar
                0x00019938       0x60 Debug/stf_syscalls_minimal.o
 .text.ITM_ReceiveChar
                0x00019998       0x38 Debug/stf_syscalls_minimal.o
 .text.ITM_CheckChar
                0x000199d0       0x28 Debug/stf_syscalls_minimal.o
 .text._exit    0x000199f8       0x18 Debug/stf_syscalls_minimal.o
                0x000199f8                _exit
 .text._write   0x00019a10       0x3c Debug/stf_syscalls_minimal.o
                0x00019a10                _write
 .text._close   0x00019a4c       0x18 Debug/stf_syscalls_minimal.o
                0x00019a4c                _close
 .text._fstat   0x00019a64       0x24 Debug/stf_syscalls_minimal.o
                0x00019a64                _fstat
 .text._isatty  0x00019a88       0x18 Debug/stf_syscalls_minimal.o
                0x00019a88                _isatty
 .text._lseek   0x00019aa0       0x1c Debug/stf_syscalls_minimal.o
                0x00019aa0                _lseek
 .text._read    0x00019abc       0x6c Debug/stf_syscalls_minimal.o
                0x00019abc                _read
 .text._sbrk    0x00019b28       0x20 Debug/stf_syscalls_minimal.o
                0x00019b28                _sbrk
 .text._open    0x00019b48       0x1c Debug/stf_syscalls_minimal.o
                0x00019b48                _open
 .text._link    0x00019b64       0x28 Debug/stf_syscalls_minimal.o
                0x00019b64                _link
 .text._unlink  0x00019b8c       0x24 Debug/stf_syscalls_minimal.o
                0x00019b8c                _unlink
 .text._stat    0x00019bb0       0x24 Debug/stf_syscalls_minimal.o
                0x00019bb0                _stat
 .text._execve  0x00019bd4       0x28 Debug/stf_syscalls_minimal.o
                0x00019bd4                _execve
 .text._fork    0x00019bfc       0x1c Debug/stf_syscalls_minimal.o
                0x00019bfc                _fork
 .text._getpid  0x00019c18       0x10 Debug/stf_syscalls_minimal.o
                0x00019c18                _getpid
 .text._kill    0x00019c28       0x28 Debug/stf_syscalls_minimal.o
                0x00019c28                _kill
 .text.times    0x00019c50       0x18 Debug/stf_syscalls_minimal.o
                0x00019c50                times
 .text._wait    0x00019c68       0x24 Debug/stf_syscalls_minimal.o
                0x00019c68                _wait
 .text._realloc_r
                0x00019c8c       0x64 Debug/stf_syscalls_minimal.o
                0x00019c8c                _realloc_r
 .text._calloc_r
                0x00019cf0       0x28 Debug/stf_syscalls_minimal.o
                0x00019cf0                _calloc_r
 .text._malloc_r
                0x00019d18       0x1c Debug/stf_syscalls_minimal.o
                0x00019d18                _malloc_r
 .text._free_r  0x00019d34       0x18 Debug/stf_syscalls_minimal.o
                0x00019d34                _free_r
 .text          0x00019d4c        0x0 Debug/io_util.o
 .text.__enable_irq
                0x00019d4c        0xc Debug/io_util.o
 .text.__disable_irq
                0x00019d58        0xc Debug/io_util.o
 .text.__enable_fault_irq
                0x00019d64        0xc Debug/io_util.o
 .text.__disable_fault_irq
                0x00019d70        0xc Debug/io_util.o
 .text.__NOP    0x00019d7c        0xc Debug/io_util.o
 .text.__WFI    0x00019d88        0xc Debug/io_util.o
 .text.__WFE    0x00019d94        0xc Debug/io_util.o
 .text.__SEV    0x00019da0        0xc Debug/io_util.o
 .text.__ISB    0x00019dac       0x10 Debug/io_util.o
 .text.__DSB    0x00019dbc       0x10 Debug/io_util.o
 .text.__DMB    0x00019dcc       0x10 Debug/io_util.o
 .text.__CLREX  0x00019ddc       0x10 Debug/io_util.o
 .text.NVIC_SetPriorityGrouping
                0x00019dec       0x4c Debug/io_util.o
 .text.NVIC_GetPriorityGrouping
                0x00019e38       0x1c Debug/io_util.o
 .text.NVIC_EnableIRQ
                0x00019e54       0x34 Debug/io_util.o
 .text.NVIC_DisableIRQ
                0x00019e88       0x38 Debug/io_util.o
 .text.NVIC_GetPendingIRQ
                0x00019ec0       0x4c Debug/io_util.o
 .text.NVIC_SetPendingIRQ
                0x00019f0c       0x38 Debug/io_util.o
 .text.NVIC_ClearPendingIRQ
                0x00019f44       0x38 Debug/io_util.o
 .text.NVIC_GetActive
                0x00019f7c       0x4c Debug/io_util.o
 .text.NVIC_SetPriority
                0x00019fc8       0x58 Debug/io_util.o
 .text.NVIC_GetPriority
                0x0001a020       0x54 Debug/io_util.o
 .text.NVIC_EncodePriority
                0x0001a074       0x7c Debug/io_util.o
 .text.NVIC_DecodePriority
                0x0001a0f0       0x7c Debug/io_util.o
 .text.SysTick_Config
                0x0001a16c       0x54 Debug/io_util.o
 .text.NVIC_SystemReset
                0x0001a1c0       0x24 Debug/io_util.o
 .text.ITM_SendChar
                0x0001a1e4       0x60 Debug/io_util.o
 .text.ITM_ReceiveChar
                0x0001a244       0x38 Debug/io_util.o
 .text.ITM_CheckChar
                0x0001a27c       0x28 Debug/io_util.o
 .text.debounce
                0x0001a2a4       0x4c Debug/io_util.o
                0x0001a2a4                debounce
 .text.vRunTimeTimerSetup
                0x0001a2f0       0x6c Debug/io_util.o
                0x0001a2f0                vRunTimeTimerSetup
 .text          0x0001a35c        0x0 Debug/core_cm3.o
 .text.__get_PSP
                0x0001a35c       0x10 Debug/core_cm3.o
                0x0001a35c                __get_PSP
 .text.__set_PSP
                0x0001a36c        0x8 Debug/core_cm3.o
                0x0001a36c                __set_PSP
 .text.__get_MSP
                0x0001a374       0x10 Debug/core_cm3.o
                0x0001a374                __get_MSP
 .text.__set_MSP
                0x0001a384        0x8 Debug/core_cm3.o
                0x0001a384                __set_MSP
 .text.__get_BASEPRI
                0x0001a38c       0x20 Debug/core_cm3.o
                0x0001a38c                __get_BASEPRI
 .text.__set_BASEPRI
                0x0001a3ac       0x18 Debug/core_cm3.o
                0x0001a3ac                __set_BASEPRI
 .text.__get_PRIMASK
                0x0001a3c4       0x20 Debug/core_cm3.o
                0x0001a3c4                __get_PRIMASK
 .text.__set_PRIMASK
                0x0001a3e4       0x18 Debug/core_cm3.o
                0x0001a3e4                __set_PRIMASK
 .text.__get_FAULTMASK
                0x0001a3fc       0x20 Debug/core_cm3.o
                0x0001a3fc                __get_FAULTMASK
 .text.__set_FAULTMASK
                0x0001a41c       0x18 Debug/core_cm3.o
                0x0001a41c                __set_FAULTMASK
 .text.__get_CONTROL
                0x0001a434       0x20 Debug/core_cm3.o
                0x0001a434                __get_CONTROL
 .text.__set_CONTROL
                0x0001a454       0x18 Debug/core_cm3.o
                0x0001a454                __set_CONTROL
 .text.__REV    0x0001a46c       0x24 Debug/core_cm3.o
                0x0001a46c                __REV
 .text.__REV16  0x0001a490       0x24 Debug/core_cm3.o
                0x0001a490                __REV16
 .text.__REVSH  0x0001a4b4       0x24 Debug/core_cm3.o
                0x0001a4b4                __REVSH
 .text.__RBIT   0x0001a4d8       0x24 Debug/core_cm3.o
                0x0001a4d8                __RBIT
 .text.__LDREXB
                0x0001a4fc       0x24 Debug/core_cm3.o
                0x0001a4fc                __LDREXB
 .text.__LDREXH
                0x0001a520       0x24 Debug/core_cm3.o
                0x0001a520                __LDREXH
 .text.__LDREXW
                0x0001a544       0x24 Debug/core_cm3.o
                0x0001a544                __LDREXW
 .text.__STREXB
                0x0001a568       0x2c Debug/core_cm3.o
                0x0001a568                __STREXB
 .text.__STREXH
                0x0001a594       0x2c Debug/core_cm3.o
                0x0001a594                __STREXH
 .text.__STREXW
                0x0001a5c0       0x28 Debug/core_cm3.o
                0x0001a5c0                __STREXW
 .text          0x0001a5e8        0x0 Debug/system_stm32f10x.o
 .text.__enable_irq
                0x0001a5e8        0xc Debug/system_stm32f10x.o
 .text.__disable_irq
                0x0001a5f4        0xc Debug/system_stm32f10x.o
 .text.__enable_fault_irq
                0x0001a600        0xc Debug/system_stm32f10x.o
 .text.__disable_fault_irq
                0x0001a60c        0xc Debug/system_stm32f10x.o
 .text.__NOP    0x0001a618        0xc Debug/system_stm32f10x.o
 .text.__WFI    0x0001a624        0xc Debug/system_stm32f10x.o
 .text.__WFE    0x0001a630        0xc Debug/system_stm32f10x.o
 .text.__SEV    0x0001a63c        0xc Debug/system_stm32f10x.o
 .text.__ISB    0x0001a648       0x10 Debug/system_stm32f10x.o
 .text.__DSB    0x0001a658       0x10 Debug/system_stm32f10x.o
 .text.__DMB    0x0001a668       0x10 Debug/system_stm32f10x.o
 .text.__CLREX  0x0001a678       0x10 Debug/system_stm32f10x.o
 .text.NVIC_SetPriorityGrouping
                0x0001a688       0x4c Debug/system_stm32f10x.o
 .text.NVIC_GetPriorityGrouping
                0x0001a6d4       0x1c Debug/system_stm32f10x.o
 .text.NVIC_EnableIRQ
                0x0001a6f0       0x34 Debug/system_stm32f10x.o
 .text.NVIC_DisableIRQ
                0x0001a724       0x38 Debug/system_stm32f10x.o
 .text.NVIC_GetPendingIRQ
                0x0001a75c       0x4c Debug/system_stm32f10x.o
 .text.NVIC_SetPendingIRQ
                0x0001a7a8       0x38 Debug/system_stm32f10x.o
 .text.NVIC_ClearPendingIRQ
                0x0001a7e0       0x38 Debug/system_stm32f10x.o
 .text.NVIC_GetActive
                0x0001a818       0x4c Debug/system_stm32f10x.o
 .text.NVIC_SetPriority
                0x0001a864       0x58 Debug/system_stm32f10x.o
 .text.NVIC_GetPriority
                0x0001a8bc       0x54 Debug/system_stm32f10x.o
 .text.NVIC_EncodePriority
                0x0001a910       0x7c Debug/system_stm32f10x.o
 .text.NVIC_DecodePriority
                0x0001a98c       0x7c Debug/system_stm32f10x.o
 .text.SysTick_Config
                0x0001aa08       0x54 Debug/system_stm32f10x.o
 .text.NVIC_SystemReset
                0x0001aa5c       0x24 Debug/system_stm32f10x.o
 .text.ITM_SendChar
                0x0001aa80       0x60 Debug/system_stm32f10x.o
 .text.ITM_ReceiveChar
                0x0001aae0       0x38 Debug/system_stm32f10x.o
 .text.ITM_CheckChar
                0x0001ab18       0x28 Debug/system_stm32f10x.o
 .text.SystemInit
                0x0001ab40       0x5c Debug/system_stm32f10x.o
                0x0001ab40                SystemInit
 .text.SystemCoreClockUpdate
                0x0001ab9c       0xe4 Debug/system_stm32f10x.o
                0x0001ab9c                SystemCoreClockUpdate
 .text.SetSysClock
                0x0001ac80        0xc Debug/system_stm32f10x.o
 .text.SetSysClockTo72
                0x0001ac8c      0x108 Debug/system_stm32f10x.o
 .text          0x0001ad94        0x0 Debug/stm32f10x_it.o
 .text.__enable_irq
                0x0001ad94        0xc Debug/stm32f10x_it.o
 .text.__disable_irq
                0x0001ada0        0xc Debug/stm32f10x_it.o
 .text.__enable_fault_irq
                0x0001adac        0xc Debug/stm32f10x_it.o
 .text.__disable_fault_irq
                0x0001adb8        0xc Debug/stm32f10x_it.o
 .text.__NOP    0x0001adc4        0xc Debug/stm32f10x_it.o
 .text.__WFI    0x0001add0        0xc Debug/stm32f10x_it.o
 .text.__WFE    0x0001addc        0xc Debug/stm32f10x_it.o
 .text.__SEV    0x0001ade8        0xc Debug/stm32f10x_it.o
 .text.__ISB    0x0001adf4       0x10 Debug/stm32f10x_it.o
 .text.__DSB    0x0001ae04       0x10 Debug/stm32f10x_it.o
 .text.__DMB    0x0001ae14       0x10 Debug/stm32f10x_it.o
 .text.__CLREX  0x0001ae24       0x10 Debug/stm32f10x_it.o
 .text.NVIC_SetPriorityGrouping
                0x0001ae34       0x4c Debug/stm32f10x_it.o
 .text.NVIC_GetPriorityGrouping
                0x0001ae80       0x1c Debug/stm32f10x_it.o
 .text.NVIC_EnableIRQ
                0x0001ae9c       0x34 Debug/stm32f10x_it.o
 .text.NVIC_DisableIRQ
                0x0001aed0       0x38 Debug/stm32f10x_it.o
 .text.NVIC_GetPendingIRQ
                0x0001af08       0x4c Debug/stm32f10x_it.o
 .text.NVIC_SetPendingIRQ
                0x0001af54       0x38 Debug/stm32f10x_it.o
 .text.NVIC_ClearPendingIRQ
                0x0001af8c       0x38 Debug/stm32f10x_it.o
 .text.NVIC_GetActive
                0x0001afc4       0x4c Debug/stm32f10x_it.o
 .text.NVIC_SetPriority
                0x0001b010       0x58 Debug/stm32f10x_it.o
 .text.NVIC_GetPriority
                0x0001b068       0x54 Debug/stm32f10x_it.o
 .text.NVIC_EncodePriority
                0x0001b0bc       0x7c Debug/stm32f10x_it.o
 .text.NVIC_DecodePriority
                0x0001b138       0x7c Debug/stm32f10x_it.o
 .text.SysTick_Config
                0x0001b1b4       0x54 Debug/stm32f10x_it.o
 .text.NVIC_SystemReset
                0x0001b208       0x24 Debug/stm32f10x_it.o
 .text.ITM_SendChar
                0x0001b22c       0x60 Debug/stm32f10x_it.o
 .text.ITM_ReceiveChar
                0x0001b28c       0x38 Debug/stm32f10x_it.o
 .text.ITM_CheckChar
                0x0001b2c4       0x28 Debug/stm32f10x_it.o
 .text.NMI_Handler
                0x0001b2ec        0xc Debug/stm32f10x_it.o
                0x0001b2ec                NMI_Handler
 .text.HardFault_Handler
                0x0001b2f8       0x18 Debug/stm32f10x_it.o
                0x0001b2f8                HardFault_Handler
 .text.MemManage_Handler
                0x0001b310       0x18 Debug/stm32f10x_it.o
                0x0001b310                MemManage_Handler
 .text.BusFault_Handler
                0x0001b328        0x8 Debug/stm32f10x_it.o
                0x0001b328                BusFault_Handler
 .text.UsageFault_Handler
                0x0001b330       0x18 Debug/stm32f10x_it.o
                0x0001b330                UsageFault_Handler
 .text.DebugMon_Handler
                0x0001b348        0xc Debug/stm32f10x_it.o
                0x0001b348                DebugMon_Handler
 .text          0x0001b354        0x0 Debug/stm32f10x_i2c.o
 .text.__enable_irq
                0x0001b354        0xc Debug/stm32f10x_i2c.o
 .text.__disable_irq
                0x0001b360        0xc Debug/stm32f10x_i2c.o
 .text.__enable_fault_irq
                0x0001b36c        0xc Debug/stm32f10x_i2c.o
 .text.__disable_fault_irq
                0x0001b378        0xc Debug/stm32f10x_i2c.o
 .text.__NOP    0x0001b384        0xc Debug/stm32f10x_i2c.o
 .text.__WFI    0x0001b390        0xc Debug/stm32f10x_i2c.o
 .text.__WFE    0x0001b39c        0xc Debug/stm32f10x_i2c.o
 .text.__SEV    0x0001b3a8        0xc Debug/stm32f10x_i2c.o
 .text.__ISB    0x0001b3b4       0x10 Debug/stm32f10x_i2c.o
 .text.__DSB    0x0001b3c4       0x10 Debug/stm32f10x_i2c.o
 .text.__DMB    0x0001b3d4       0x10 Debug/stm32f10x_i2c.o
 .text.__CLREX  0x0001b3e4       0x10 Debug/stm32f10x_i2c.o
 .text.NVIC_SetPriorityGrouping
                0x0001b3f4       0x4c Debug/stm32f10x_i2c.o
 .text.NVIC_GetPriorityGrouping
                0x0001b440       0x1c Debug/stm32f10x_i2c.o
 .text.NVIC_EnableIRQ
                0x0001b45c       0x34 Debug/stm32f10x_i2c.o
 .text.NVIC_DisableIRQ
                0x0001b490       0x38 Debug/stm32f10x_i2c.o
 .text.NVIC_GetPendingIRQ
                0x0001b4c8       0x4c Debug/stm32f10x_i2c.o
 .text.NVIC_SetPendingIRQ
                0x0001b514       0x38 Debug/stm32f10x_i2c.o
 .text.NVIC_ClearPendingIRQ
                0x0001b54c       0x38 Debug/stm32f10x_i2c.o
 .text.NVIC_GetActive
                0x0001b584       0x4c Debug/stm32f10x_i2c.o
 .text.NVIC_SetPriority
                0x0001b5d0       0x58 Debug/stm32f10x_i2c.o
 .text.NVIC_GetPriority
                0x0001b628       0x54 Debug/stm32f10x_i2c.o
 .text.NVIC_EncodePriority
                0x0001b67c       0x7c Debug/stm32f10x_i2c.o
 .text.NVIC_DecodePriority
                0x0001b6f8       0x7c Debug/stm32f10x_i2c.o
 .text.SysTick_Config
                0x0001b774       0x54 Debug/stm32f10x_i2c.o
 .text.NVIC_SystemReset
                0x0001b7c8       0x24 Debug/stm32f10x_i2c.o
 .text.ITM_SendChar
                0x0001b7ec       0x60 Debug/stm32f10x_i2c.o
 .text.ITM_ReceiveChar
                0x0001b84c       0x38 Debug/stm32f10x_i2c.o
 .text.ITM_CheckChar
                0x0001b884       0x28 Debug/stm32f10x_i2c.o
 .text.I2C_DeInit
                0x0001b8ac       0x70 Debug/stm32f10x_i2c.o
                0x0001b8ac                I2C_DeInit
 .text.I2C_Init
                0x0001b91c      0x288 Debug/stm32f10x_i2c.o
                0x0001b91c                I2C_Init
 .text.I2C_StructInit
                0x0001bba4       0x44 Debug/stm32f10x_i2c.o
                0x0001bba4                I2C_StructInit
 .text.I2C_Cmd  0x0001bbe8       0x78 Debug/stm32f10x_i2c.o
                0x0001bbe8                I2C_Cmd
 .text.I2C_DMACmd
                0x0001bc60       0x78 Debug/stm32f10x_i2c.o
                0x0001bc60                I2C_DMACmd
 .text.I2C_DMALastTransferCmd
                0x0001bcd8       0x78 Debug/stm32f10x_i2c.o
                0x0001bcd8                I2C_DMALastTransferCmd
 .text.I2C_GenerateSTART
                0x0001bd50       0x78 Debug/stm32f10x_i2c.o
                0x0001bd50                I2C_GenerateSTART
 .text.I2C_GenerateSTOP
                0x0001bdc8       0x78 Debug/stm32f10x_i2c.o
                0x0001bdc8                I2C_GenerateSTOP
 .text.I2C_AcknowledgeConfig
                0x0001be40       0x78 Debug/stm32f10x_i2c.o
                0x0001be40                I2C_AcknowledgeConfig
 .text.I2C_OwnAddress2Config
                0x0001beb8       0x68 Debug/stm32f10x_i2c.o
                0x0001beb8                I2C_OwnAddress2Config
 .text.I2C_DualAddressCmd
                0x0001bf20       0x78 Debug/stm32f10x_i2c.o
                0x0001bf20                I2C_DualAddressCmd
 .text.I2C_GeneralCallCmd
                0x0001bf98       0x78 Debug/stm32f10x_i2c.o
                0x0001bf98                I2C_GeneralCallCmd
 .text.I2C_ITConfig
                0x0001c010       0xa4 Debug/stm32f10x_i2c.o
                0x0001c010                I2C_ITConfig
 .text.I2C_SendData
                0x0001c0b4       0x44 Debug/stm32f10x_i2c.o
                0x0001c0b4                I2C_SendData
 .text.I2C_ReceiveData
                0x0001c0f8       0x40 Debug/stm32f10x_i2c.o
                0x0001c0f8                I2C_ReceiveData
 .text.I2C_Send7bitAddress
                0x0001c138       0x74 Debug/stm32f10x_i2c.o
                0x0001c138                I2C_Send7bitAddress
 .text.I2C_ReadRegister
                0x0001c1ac       0x94 Debug/stm32f10x_i2c.o
                0x0001c1ac                I2C_ReadRegister
 .text.I2C_SoftwareResetCmd
                0x0001c240       0x80 Debug/stm32f10x_i2c.o
                0x0001c240                I2C_SoftwareResetCmd
 .text.I2C_SMBusAlertConfig
                0x0001c2c0       0x80 Debug/stm32f10x_i2c.o
                0x0001c2c0                I2C_SMBusAlertConfig
 .text.I2C_TransmitPEC
                0x0001c340       0x78 Debug/stm32f10x_i2c.o
                0x0001c340                I2C_TransmitPEC
 .text.I2C_PECPositionConfig
                0x0001c3b8       0x80 Debug/stm32f10x_i2c.o
                0x0001c3b8                I2C_PECPositionConfig
 .text.I2C_CalculatePEC
                0x0001c438       0x78 Debug/stm32f10x_i2c.o
                0x0001c438                I2C_CalculatePEC
 .text.I2C_GetPEC
                0x0001c4b0       0x48 Debug/stm32f10x_i2c.o
                0x0001c4b0                I2C_GetPEC
 .text.I2C_ARPCmd
                0x0001c4f8       0x78 Debug/stm32f10x_i2c.o
                0x0001c4f8                I2C_ARPCmd
 .text.I2C_StretchClockCmd
                0x0001c570       0x78 Debug/stm32f10x_i2c.o
                0x0001c570                I2C_StretchClockCmd
 .text.I2C_FastModeDutyCycleConfig
                0x0001c5e8       0x80 Debug/stm32f10x_i2c.o
                0x0001c5e8                I2C_FastModeDutyCycleConfig
 .text.I2C_GetLastEvent
                0x0001c668       0x74 Debug/stm32f10x_i2c.o
                0x0001c668                I2C_GetLastEvent
 .text.I2C_CheckEvent
                0x0001c6dc      0x174 Debug/stm32f10x_i2c.o
                0x0001c6dc                I2C_CheckEvent
 .text.I2C_GetFlagStatus
                0x0001c850      0x184 Debug/stm32f10x_i2c.o
                0x0001c850                I2C_GetFlagStatus
 .text.I2C_ClearFlag
                0x0001c9d4       0x74 Debug/stm32f10x_i2c.o
                0x0001c9d4                I2C_ClearFlag
 .text.I2C_GetITStatus
                0x0001ca48      0x13c Debug/stm32f10x_i2c.o
                0x0001ca48                I2C_GetITStatus
 .text.I2C_ClearITPendingBit
                0x0001cb84       0x74 Debug/stm32f10x_i2c.o
                0x0001cb84                I2C_ClearITPendingBit
 .text          0x0001cbf8        0x0 Debug/misc.o
 .text.__enable_irq
                0x0001cbf8        0xc Debug/misc.o
 .text.__disable_irq
                0x0001cc04        0xc Debug/misc.o
 .text.__enable_fault_irq
                0x0001cc10        0xc Debug/misc.o
 .text.__disable_fault_irq
                0x0001cc1c        0xc Debug/misc.o
 .text.__NOP    0x0001cc28        0xc Debug/misc.o
 .text.__WFI    0x0001cc34        0xc Debug/misc.o
 .text.__WFE    0x0001cc40        0xc Debug/misc.o
 .text.__SEV    0x0001cc4c        0xc Debug/misc.o
 .text.__ISB    0x0001cc58       0x10 Debug/misc.o
 .text.__DSB    0x0001cc68       0x10 Debug/misc.o
 .text.__DMB    0x0001cc78       0x10 Debug/misc.o
 .text.__CLREX  0x0001cc88       0x10 Debug/misc.o
 .text.NVIC_SetPriorityGrouping
                0x0001cc98       0x4c Debug/misc.o
 .text.NVIC_GetPriorityGrouping
                0x0001cce4       0x1c Debug/misc.o
 .text.NVIC_EnableIRQ
                0x0001cd00       0x34 Debug/misc.o
 .text.NVIC_DisableIRQ
                0x0001cd34       0x38 Debug/misc.o
 .text.NVIC_GetPendingIRQ
                0x0001cd6c       0x4c Debug/misc.o
 .text.NVIC_SetPendingIRQ
                0x0001cdb8       0x38 Debug/misc.o
 .text.NVIC_ClearPendingIRQ
                0x0001cdf0       0x38 Debug/misc.o
 .text.NVIC_GetActive
                0x0001ce28       0x4c Debug/misc.o
 .text.NVIC_SetPriority
                0x0001ce74       0x58 Debug/misc.o
 .text.NVIC_GetPriority
                0x0001cecc       0x54 Debug/misc.o
 .text.NVIC_EncodePriority
                0x0001cf20       0x7c Debug/misc.o
 .text.NVIC_DecodePriority
                0x0001cf9c       0x7c Debug/misc.o
 .text.SysTick_Config
                0x0001d018       0x54 Debug/misc.o
 .text.NVIC_SystemReset
                0x0001d06c       0x24 Debug/misc.o
 .text.ITM_SendChar
                0x0001d090       0x60 Debug/misc.o
 .text.ITM_ReceiveChar
                0x0001d0f0       0x38 Debug/misc.o
 .text.ITM_CheckChar
                0x0001d128       0x28 Debug/misc.o
 .text.NVIC_PriorityGroupConfig
                0x0001d150       0x58 Debug/misc.o
                0x0001d150                NVIC_PriorityGroupConfig
 .text.NVIC_Init
                0x0001d1a8      0x118 Debug/misc.o
                0x0001d1a8                NVIC_Init
 .text.NVIC_SetVectorTable
                0x0001d2c0       0x5c Debug/misc.o
                0x0001d2c0                NVIC_SetVectorTable
 .text.NVIC_SystemLPConfig
                0x0001d31c       0x78 Debug/misc.o
                0x0001d31c                NVIC_SystemLPConfig
 .text.SysTick_CLKSourceConfig
                0x0001d394       0x50 Debug/misc.o
                0x0001d394                SysTick_CLKSourceConfig
 .text          0x0001d3e4        0x0 Debug/stm32f10x_rcc.o
 .text.__enable_irq
                0x0001d3e4        0xc Debug/stm32f10x_rcc.o
 .text.__disable_irq
                0x0001d3f0        0xc Debug/stm32f10x_rcc.o
 .text.__enable_fault_irq
                0x0001d3fc        0xc Debug/stm32f10x_rcc.o
 .text.__disable_fault_irq
                0x0001d408        0xc Debug/stm32f10x_rcc.o
 .text.__NOP    0x0001d414        0xc Debug/stm32f10x_rcc.o
 .text.__WFI    0x0001d420        0xc Debug/stm32f10x_rcc.o
 .text.__WFE    0x0001d42c        0xc Debug/stm32f10x_rcc.o
 .text.__SEV    0x0001d438        0xc Debug/stm32f10x_rcc.o
 .text.__ISB    0x0001d444       0x10 Debug/stm32f10x_rcc.o
 .text.__DSB    0x0001d454       0x10 Debug/stm32f10x_rcc.o
 .text.__DMB    0x0001d464       0x10 Debug/stm32f10x_rcc.o
 .text.__CLREX  0x0001d474       0x10 Debug/stm32f10x_rcc.o
 .text.NVIC_SetPriorityGrouping
                0x0001d484       0x4c Debug/stm32f10x_rcc.o
 .text.NVIC_GetPriorityGrouping
                0x0001d4d0       0x1c Debug/stm32f10x_rcc.o
 .text.NVIC_EnableIRQ
                0x0001d4ec       0x34 Debug/stm32f10x_rcc.o
 .text.NVIC_DisableIRQ
                0x0001d520       0x38 Debug/stm32f10x_rcc.o
 .text.NVIC_GetPendingIRQ
                0x0001d558       0x4c Debug/stm32f10x_rcc.o
 .text.NVIC_SetPendingIRQ
                0x0001d5a4       0x38 Debug/stm32f10x_rcc.o
 .text.NVIC_ClearPendingIRQ
                0x0001d5dc       0x38 Debug/stm32f10x_rcc.o
 .text.NVIC_GetActive
                0x0001d614       0x4c Debug/stm32f10x_rcc.o
 .text.NVIC_SetPriority
                0x0001d660       0x58 Debug/stm32f10x_rcc.o
 .text.NVIC_GetPriority
                0x0001d6b8       0x54 Debug/stm32f10x_rcc.o
 .text.NVIC_EncodePriority
                0x0001d70c       0x7c Debug/stm32f10x_rcc.o
 .text.NVIC_DecodePriority
                0x0001d788       0x7c Debug/stm32f10x_rcc.o
 .text.SysTick_Config
                0x0001d804       0x54 Debug/stm32f10x_rcc.o
 .text.NVIC_SystemReset
                0x0001d858       0x24 Debug/stm32f10x_rcc.o
 .text.ITM_SendChar
                0x0001d87c       0x60 Debug/stm32f10x_rcc.o
 .text.ITM_ReceiveChar
                0x0001d8dc       0x38 Debug/stm32f10x_rcc.o
 .text.ITM_CheckChar
                0x0001d914       0x28 Debug/stm32f10x_rcc.o
 .text.RCC_DeInit
                0x0001d93c       0x5c Debug/stm32f10x_rcc.o
                0x0001d93c                RCC_DeInit
 .text.RCC_HSEConfig
                0x0001d998       0x7c Debug/stm32f10x_rcc.o
                0x0001d998                RCC_HSEConfig
 .text.RCC_WaitForHSEStartUp
                0x0001da14       0x64 Debug/stm32f10x_rcc.o
                0x0001da14                RCC_WaitForHSEStartUp
 .text.RCC_AdjustHSICalibrationValue
                0x0001da78       0x54 Debug/stm32f10x_rcc.o
                0x0001da78                RCC_AdjustHSICalibrationValue
 .text.RCC_HSICmd
                0x0001dacc       0x38 Debug/stm32f10x_rcc.o
                0x0001dacc                RCC_HSICmd
 .text.RCC_PLLConfig
                0x0001db04       0xe4 Debug/stm32f10x_rcc.o
                0x0001db04                RCC_PLLConfig
 .text.RCC_PLLCmd
                0x0001dbe8       0x38 Debug/stm32f10x_rcc.o
                0x0001dbe8                RCC_PLLCmd
 .text.RCC_SYSCLKConfig
                0x0001dc20       0x58 Debug/stm32f10x_rcc.o
                0x0001dc20                RCC_SYSCLKConfig
 .text.RCC_GetSYSCLKSource
                0x0001dc78       0x1c Debug/stm32f10x_rcc.o
                0x0001dc78                RCC_GetSYSCLKSource
 .text.RCC_HCLKConfig
                0x0001dc94       0x7c Debug/stm32f10x_rcc.o
                0x0001dc94                RCC_HCLKConfig
 .text.RCC_PCLK1Config
                0x0001dd10       0x6c Debug/stm32f10x_rcc.o
                0x0001dd10                RCC_PCLK1Config
 .text.RCC_PCLK2Config
                0x0001dd7c       0x70 Debug/stm32f10x_rcc.o
                0x0001dd7c                RCC_PCLK2Config
 .text.RCC_ITConfig
                0x0001ddec       0x80 Debug/stm32f10x_rcc.o
                0x0001ddec                RCC_ITConfig
 .text.RCC_USBCLKConfig
                0x0001de6c       0x34 Debug/stm32f10x_rcc.o
                0x0001de6c                RCC_USBCLKConfig
 .text.RCC_ADCCLKConfig
                0x0001dea0       0x64 Debug/stm32f10x_rcc.o
                0x0001dea0                RCC_ADCCLKConfig
 .text.RCC_LSEConfig
                0x0001df04       0x68 Debug/stm32f10x_rcc.o
                0x0001df04                RCC_LSEConfig
 .text.RCC_LSICmd
                0x0001df6c       0x38 Debug/stm32f10x_rcc.o
                0x0001df6c                RCC_LSICmd
 .text.RCC_RTCCLKConfig
                0x0001dfa4       0x48 Debug/stm32f10x_rcc.o
                0x0001dfa4                RCC_RTCCLKConfig
 .text.RCC_RTCCLKCmd
                0x0001dfec       0x38 Debug/stm32f10x_rcc.o
                0x0001dfec                RCC_RTCCLKCmd
 .text.RCC_GetClocksFreq
                0x0001e024      0x17c Debug/stm32f10x_rcc.o
                0x0001e024                RCC_GetClocksFreq
 .text.RCC_AHBPeriphClockCmd
                0x0001e1a0       0x78 Debug/stm32f10x_rcc.o
                0x0001e1a0                RCC_AHBPeriphClockCmd
 .text.RCC_APB2PeriphClockCmd
                0x0001e218       0x7c Debug/stm32f10x_rcc.o
                0x0001e218                RCC_APB2PeriphClockCmd
 .text.RCC_APB1PeriphClockCmd
                0x0001e294       0x7c Debug/stm32f10x_rcc.o
                0x0001e294                RCC_APB1PeriphClockCmd
 .text.RCC_APB2PeriphResetCmd
                0x0001e310       0x7c Debug/stm32f10x_rcc.o
                0x0001e310                RCC_APB2PeriphResetCmd
 .text.RCC_APB1PeriphResetCmd
                0x0001e38c       0x7c Debug/stm32f10x_rcc.o
                0x0001e38c                RCC_APB1PeriphResetCmd
 .text.RCC_BackupResetCmd
                0x0001e408       0x38 Debug/stm32f10x_rcc.o
                0x0001e408                RCC_BackupResetCmd
 .text.RCC_ClockSecuritySystemCmd
                0x0001e440       0x38 Debug/stm32f10x_rcc.o
                0x0001e440                RCC_ClockSecuritySystemCmd
 .text.RCC_MCOConfig
                0x0001e478       0x48 Debug/stm32f10x_rcc.o
                0x0001e478                RCC_MCOConfig
 .text.RCC_GetFlagStatus
                0x0001e4c0       0xd0 Debug/stm32f10x_rcc.o
                0x0001e4c0                RCC_GetFlagStatus
 .text.RCC_ClearFlag
                0x0001e590       0x1c Debug/stm32f10x_rcc.o
                0x0001e590                RCC_ClearFlag
 .text.RCC_GetITStatus
                0x0001e5ac       0x70 Debug/stm32f10x_rcc.o
                0x0001e5ac                RCC_GetITStatus
 .text.RCC_ClearITPendingBit
                0x0001e61c       0x3c Debug/stm32f10x_rcc.o
                0x0001e61c                RCC_ClearITPendingBit
 .text          0x0001e658        0x0 Debug/stm32f10x_gpio.o
 .text.__enable_irq
                0x0001e658        0xc Debug/stm32f10x_gpio.o
 .text.__disable_irq
                0x0001e664        0xc Debug/stm32f10x_gpio.o
 .text.__enable_fault_irq
                0x0001e670        0xc Debug/stm32f10x_gpio.o
 .text.__disable_fault_irq
                0x0001e67c        0xc Debug/stm32f10x_gpio.o
 .text.__NOP    0x0001e688        0xc Debug/stm32f10x_gpio.o
 .text.__WFI    0x0001e694        0xc Debug/stm32f10x_gpio.o
 .text.__WFE    0x0001e6a0        0xc Debug/stm32f10x_gpio.o
 .text.__SEV    0x0001e6ac        0xc Debug/stm32f10x_gpio.o
 .text.__ISB    0x0001e6b8       0x10 Debug/stm32f10x_gpio.o
 .text.__DSB    0x0001e6c8       0x10 Debug/stm32f10x_gpio.o
 .text.__DMB    0x0001e6d8       0x10 Debug/stm32f10x_gpio.o
 .text.__CLREX  0x0001e6e8       0x10 Debug/stm32f10x_gpio.o
 .text.NVIC_SetPriorityGrouping
                0x0001e6f8       0x4c Debug/stm32f10x_gpio.o
 .text.NVIC_GetPriorityGrouping
                0x0001e744       0x1c Debug/stm32f10x_gpio.o
 .text.NVIC_EnableIRQ
                0x0001e760       0x34 Debug/stm32f10x_gpio.o
 .text.NVIC_DisableIRQ
                0x0001e794       0x38 Debug/stm32f10x_gpio.o
 .text.NVIC_GetPendingIRQ
                0x0001e7cc       0x4c Debug/stm32f10x_gpio.o
 .text.NVIC_SetPendingIRQ
                0x0001e818       0x38 Debug/stm32f10x_gpio.o
 .text.NVIC_ClearPendingIRQ
                0x0001e850       0x38 Debug/stm32f10x_gpio.o
 .text.NVIC_GetActive
                0x0001e888       0x4c Debug/stm32f10x_gpio.o
 .text.NVIC_SetPriority
                0x0001e8d4       0x58 Debug/stm32f10x_gpio.o
 .text.NVIC_GetPriority
                0x0001e92c       0x54 Debug/stm32f10x_gpio.o
 .text.NVIC_EncodePriority
                0x0001e980       0x7c Debug/stm32f10x_gpio.o
 .text.NVIC_DecodePriority
                0x0001e9fc       0x7c Debug/stm32f10x_gpio.o
 .text.SysTick_Config
                0x0001ea78       0x54 Debug/stm32f10x_gpio.o
 .text.NVIC_SystemReset
                0x0001eacc       0x24 Debug/stm32f10x_gpio.o
 .text.ITM_SendChar
                0x0001eaf0       0x60 Debug/stm32f10x_gpio.o
 .text.ITM_ReceiveChar
                0x0001eb50       0x38 Debug/stm32f10x_gpio.o
 .text.ITM_CheckChar
                0x0001eb88       0x28 Debug/stm32f10x_gpio.o
 .text.GPIO_DeInit
                0x0001ebb0      0x160 Debug/stm32f10x_gpio.o
                0x0001ebb0                GPIO_DeInit
 .text.GPIO_AFIODeInit
                0x0001ed10       0x20 Debug/stm32f10x_gpio.o
                0x0001ed10                GPIO_AFIODeInit
 .text.GPIO_Init
                0x0001ed30      0x2a0 Debug/stm32f10x_gpio.o
                0x0001ed30                GPIO_Init
 .text.GPIO_StructInit
                0x0001efd0       0x2c Debug/stm32f10x_gpio.o
                0x0001efd0                GPIO_StructInit
 .text.GPIO_ReadInputDataBit
                0x0001effc      0x118 Debug/stm32f10x_gpio.o
                0x0001effc                GPIO_ReadInputDataBit
 .text.GPIO_ReadInputData
                0x0001f114       0x7c Debug/stm32f10x_gpio.o
                0x0001f114                GPIO_ReadInputData
 .text.GPIO_ReadOutputDataBit
                0x0001f190      0x118 Debug/stm32f10x_gpio.o
                0x0001f190                GPIO_ReadOutputDataBit
 .text.GPIO_ReadOutputData
                0x0001f2a8       0x7c Debug/stm32f10x_gpio.o
                0x0001f2a8                GPIO_ReadOutputData
 .text.GPIO_SetBits
                0x0001f324       0x8c Debug/stm32f10x_gpio.o
                0x0001f324                GPIO_SetBits
 .text.GPIO_ResetBits
                0x0001f3b0       0x8c Debug/stm32f10x_gpio.o
                0x0001f3b0                GPIO_ResetBits
 .text.GPIO_WriteBit
                0x0001f43c      0x120 Debug/stm32f10x_gpio.o
                0x0001f43c                GPIO_WriteBit
 .text.GPIO_Write
                0x0001f55c       0x7c Debug/stm32f10x_gpio.o
                0x0001f55c                GPIO_Write
 .text.GPIO_PinLockConfig
                0x0001f5d8       0xb4 Debug/stm32f10x_gpio.o
                0x0001f5d8                GPIO_PinLockConfig
 .text.GPIO_EventOutputConfig
                0x0001f68c       0xe8 Debug/stm32f10x_gpio.o
                0x0001f68c                GPIO_EventOutputConfig
 .text.GPIO_EventOutputCmd
                0x0001f774       0x38 Debug/stm32f10x_gpio.o
                0x0001f774                GPIO_EventOutputCmd
 .text.GPIO_PinRemapConfig
                0x0001f7ac      0x2a4 Debug/stm32f10x_gpio.o
                0x0001f7ac                GPIO_PinRemapConfig
 .text.GPIO_EXTILineConfig
                0x0001fa50      0x13c Debug/stm32f10x_gpio.o
                0x0001fa50                GPIO_EXTILineConfig
 .text.GPIO_ETH_MediaInterfaceConfig
                0x0001fb8c       0x34 Debug/stm32f10x_gpio.o
                0x0001fb8c                GPIO_ETH_MediaInterfaceConfig
 .text          0x0001fbc0        0x0 Debug/stm32f10x_spi.o
 .text.__enable_irq
                0x0001fbc0        0xc Debug/stm32f10x_spi.o
 .text.__disable_irq
                0x0001fbcc        0xc Debug/stm32f10x_spi.o
 .text.__enable_fault_irq
                0x0001fbd8        0xc Debug/stm32f10x_spi.o
 .text.__disable_fault_irq
                0x0001fbe4        0xc Debug/stm32f10x_spi.o
 .text.__NOP    0x0001fbf0        0xc Debug/stm32f10x_spi.o
 .text.__WFI    0x0001fbfc        0xc Debug/stm32f10x_spi.o
 .text.__WFE    0x0001fc08        0xc Debug/stm32f10x_spi.o
 .text.__SEV    0x0001fc14        0xc Debug/stm32f10x_spi.o
 .text.__ISB    0x0001fc20       0x10 Debug/stm32f10x_spi.o
 .text.__DSB    0x0001fc30       0x10 Debug/stm32f10x_spi.o
 .text.__DMB    0x0001fc40       0x10 Debug/stm32f10x_spi.o
 .text.__CLREX  0x0001fc50       0x10 Debug/stm32f10x_spi.o
 .text.NVIC_SetPriorityGrouping
                0x0001fc60       0x4c Debug/stm32f10x_spi.o
 .text.NVIC_GetPriorityGrouping
                0x0001fcac       0x1c Debug/stm32f10x_spi.o
 .text.NVIC_EnableIRQ
                0x0001fcc8       0x34 Debug/stm32f10x_spi.o
 .text.NVIC_DisableIRQ
                0x0001fcfc       0x38 Debug/stm32f10x_spi.o
 .text.NVIC_GetPendingIRQ
                0x0001fd34       0x4c Debug/stm32f10x_spi.o
 .text.NVIC_SetPendingIRQ
                0x0001fd80       0x38 Debug/stm32f10x_spi.o
 .text.NVIC_ClearPendingIRQ
                0x0001fdb8       0x38 Debug/stm32f10x_spi.o
 .text.NVIC_GetActive
                0x0001fdf0       0x4c Debug/stm32f10x_spi.o
 .text.NVIC_SetPriority
                0x0001fe3c       0x58 Debug/stm32f10x_spi.o
 .text.NVIC_GetPriority
                0x0001fe94       0x54 Debug/stm32f10x_spi.o
 .text.NVIC_EncodePriority
                0x0001fee8       0x7c Debug/stm32f10x_spi.o
 .text.NVIC_DecodePriority
                0x0001ff64       0x7c Debug/stm32f10x_spi.o
 .text.SysTick_Config
                0x0001ffe0       0x54 Debug/stm32f10x_spi.o
 .text.NVIC_SystemReset
                0x00020034       0x24 Debug/stm32f10x_spi.o
 .text.ITM_SendChar
                0x00020058       0x60 Debug/stm32f10x_spi.o
 .text.ITM_ReceiveChar
                0x000200b8       0x38 Debug/stm32f10x_spi.o
 .text.ITM_CheckChar
                0x000200f0       0x28 Debug/stm32f10x_spi.o
 .text.SPI_I2S_DeInit
                0x00020118       0xa8 Debug/stm32f10x_spi.o
                0x00020118                SPI_I2S_DeInit
 .text.SPI_Init
                0x000201c0      0x1f8 Debug/stm32f10x_spi.o
                0x000201c0                SPI_Init
 .text.I2S_Init
                0x000203b8      0x2f4 Debug/stm32f10x_spi.o
                0x000203b8                I2S_Init
 .text.SPI_StructInit
                0x000206ac       0x5c Debug/stm32f10x_spi.o
                0x000206ac                SPI_StructInit
 .text.I2S_StructInit
                0x00020708       0x44 Debug/stm32f10x_spi.o
                0x00020708                I2S_StructInit
 .text.SPI_Cmd  0x0002074c       0x84 Debug/stm32f10x_spi.o
                0x0002074c                SPI_Cmd
 .text.I2S_Cmd  0x000207d0       0x78 Debug/stm32f10x_spi.o
                0x000207d0                I2S_Cmd
 .text.SPI_I2S_ITConfig
                0x00020848       0xd0 Debug/stm32f10x_spi.o
                0x00020848                SPI_I2S_ITConfig
 .text.SPI_I2S_DMACmd
                0x00020918       0xb0 Debug/stm32f10x_spi.o
                0x00020918                SPI_I2S_DMACmd
 .text.SPI_I2S_SendData
                0x000209c8       0x4c Debug/stm32f10x_spi.o
                0x000209c8                SPI_I2S_SendData
 .text.SPI_I2S_ReceiveData
                0x00020a14       0x4c Debug/stm32f10x_spi.o
                0x00020a14                SPI_I2S_ReceiveData
 .text.SPI_NSSInternalSoftwareConfig
                0x00020a60       0x90 Debug/stm32f10x_spi.o
                0x00020a60                SPI_NSSInternalSoftwareConfig
 .text.SPI_SSOutputCmd
                0x00020af0       0x84 Debug/stm32f10x_spi.o
                0x00020af0                SPI_SSOutputCmd
 .text.SPI_DataSizeConfig
                0x00020b74       0x80 Debug/stm32f10x_spi.o
                0x00020b74                SPI_DataSizeConfig
 .text.SPI_TransmitCRC
                0x00020bf4       0x54 Debug/stm32f10x_spi.o
                0x00020bf4                SPI_TransmitCRC
 .text.SPI_CalculateCRC
                0x00020c48       0x84 Debug/stm32f10x_spi.o
                0x00020c48                SPI_CalculateCRC
 .text.SPI_GetCRC
                0x00020ccc       0x7c Debug/stm32f10x_spi.o
                0x00020ccc                SPI_GetCRC
 .text.SPI_GetCRCPolynomial
                0x00020d48       0x4c Debug/stm32f10x_spi.o
                0x00020d48                SPI_GetCRCPolynomial
 .text.SPI_BiDirectionalLineConfig
                0x00020d94       0x8c Debug/stm32f10x_spi.o
                0x00020d94                SPI_BiDirectionalLineConfig
 .text.SPI_I2S_GetFlagStatus
                0x00020e20       0xac Debug/stm32f10x_spi.o
                0x00020e20                SPI_I2S_GetFlagStatus
 .text.SPI_I2S_ClearFlag
                0x00020ecc       0x64 Debug/stm32f10x_spi.o
                0x00020ecc                SPI_I2S_ClearFlag
 .text.SPI_I2S_GetITStatus
                0x00020f30       0xec Debug/stm32f10x_spi.o
                0x00020f30                SPI_I2S_GetITStatus
 .text.SPI_I2S_ClearITPendingBit
                0x0002101c       0x78 Debug/stm32f10x_spi.o
                0x0002101c                SPI_I2S_ClearITPendingBit
 .text          0x00021094        0x0 Debug/stm32f10x_tim.o
 .text.__enable_irq
                0x00021094        0xc Debug/stm32f10x_tim.o
 .text.__disable_irq
                0x000210a0        0xc Debug/stm32f10x_tim.o
 .text.__enable_fault_irq
                0x000210ac        0xc Debug/stm32f10x_tim.o
 .text.__disable_fault_irq
                0x000210b8        0xc Debug/stm32f10x_tim.o
 .text.__NOP    0x000210c4        0xc Debug/stm32f10x_tim.o
 .text.__WFI    0x000210d0        0xc Debug/stm32f10x_tim.o
 .text.__WFE    0x000210dc        0xc Debug/stm32f10x_tim.o
 .text.__SEV    0x000210e8        0xc Debug/stm32f10x_tim.o
 .text.__ISB    0x000210f4       0x10 Debug/stm32f10x_tim.o
 .text.__DSB    0x00021104       0x10 Debug/stm32f10x_tim.o
 .text.__DMB    0x00021114       0x10 Debug/stm32f10x_tim.o
 .text.__CLREX  0x00021124       0x10 Debug/stm32f10x_tim.o
 .text.NVIC_SetPriorityGrouping
                0x00021134       0x4c Debug/stm32f10x_tim.o
 .text.NVIC_GetPriorityGrouping
                0x00021180       0x1c Debug/stm32f10x_tim.o
 .text.NVIC_EnableIRQ
                0x0002119c       0x34 Debug/stm32f10x_tim.o
 .text.NVIC_DisableIRQ
                0x000211d0       0x38 Debug/stm32f10x_tim.o
 .text.NVIC_GetPendingIRQ
                0x00021208       0x4c Debug/stm32f10x_tim.o
 .text.NVIC_SetPendingIRQ
                0x00021254       0x38 Debug/stm32f10x_tim.o
 .text.NVIC_ClearPendingIRQ
                0x0002128c       0x38 Debug/stm32f10x_tim.o
 .text.NVIC_GetActive
                0x000212c4       0x4c Debug/stm32f10x_tim.o
 .text.NVIC_SetPriority
                0x00021310       0x58 Debug/stm32f10x_tim.o
 .text.NVIC_GetPriority
                0x00021368       0x54 Debug/stm32f10x_tim.o
 .text.NVIC_EncodePriority
                0x000213bc       0x7c Debug/stm32f10x_tim.o
 .text.NVIC_DecodePriority
                0x00021438       0x7c Debug/stm32f10x_tim.o
 .text.SysTick_Config
                0x000214b4       0x54 Debug/stm32f10x_tim.o
 .text.NVIC_SystemReset
                0x00021508       0x24 Debug/stm32f10x_tim.o
 .text.ITM_SendChar
                0x0002152c       0x60 Debug/stm32f10x_tim.o
 .text.ITM_ReceiveChar
                0x0002158c       0x38 Debug/stm32f10x_tim.o
 .text.ITM_CheckChar
                0x000215c4       0x28 Debug/stm32f10x_tim.o
 .text.TIM_DeInit
                0x000215ec      0x214 Debug/stm32f10x_tim.o
                0x000215ec                TIM_DeInit
 .text.TIM_TimeBaseInit
                0x00021800      0x1d4 Debug/stm32f10x_tim.o
                0x00021800                TIM_TimeBaseInit
 .text.TIM_OC1Init
                0x000219d4      0x270 Debug/stm32f10x_tim.o
                0x000219d4                TIM_OC1Init
 .text.TIM_OC2Init
                0x00021c44      0x26c Debug/stm32f10x_tim.o
                0x00021c44                TIM_OC2Init
 .text.TIM_OC3Init
                0x00021eb0      0x254 Debug/stm32f10x_tim.o
                0x00021eb0                TIM_OC3Init
 .text.TIM_OC4Init
                0x00022104      0x1b4 Debug/stm32f10x_tim.o
                0x00022104                TIM_OC4Init
 .text.TIM_ICInit
                0x000222b8      0x2cc Debug/stm32f10x_tim.o
                0x000222b8                TIM_ICInit
 .text.TIM_PWMIConfig
                0x00022584      0x124 Debug/stm32f10x_tim.o
                0x00022584                TIM_PWMIConfig
 .text.TIM_BDTRConfig
                0x000226a8      0x160 Debug/stm32f10x_tim.o
                0x000226a8                TIM_BDTRConfig
 .text.TIM_TimeBaseStructInit
                0x00022808       0x3c Debug/stm32f10x_tim.o
                0x00022808                TIM_TimeBaseStructInit
 .text.TIM_OCStructInit
                0x00022844       0x54 Debug/stm32f10x_tim.o
                0x00022844                TIM_OCStructInit
 .text.TIM_ICStructInit
                0x00022898       0x3c Debug/stm32f10x_tim.o
                0x00022898                TIM_ICStructInit
 .text.TIM_BDTRStructInit
                0x000228d4       0x4c Debug/stm32f10x_tim.o
                0x000228d4                TIM_BDTRStructInit
 .text.TIM_Cmd  0x00022920       0xe4 Debug/stm32f10x_tim.o
                0x00022920                TIM_Cmd
 .text.TIM_CtrlPWMOutputs
                0x00022a04       0xac Debug/stm32f10x_tim.o
                0x00022a04                TIM_CtrlPWMOutputs
 .text.TIM_ITConfig
                0x00022ab0      0x108 Debug/stm32f10x_tim.o
                0x00022ab0                TIM_ITConfig
 .text.TIM_GenerateEvent
                0x00022bb8       0xc4 Debug/stm32f10x_tim.o
                0x00022bb8                TIM_GenerateEvent
 .text.TIM_DMAConfig
                0x00022c7c      0x1b4 Debug/stm32f10x_tim.o
                0x00022c7c                TIM_DMAConfig
 .text.TIM_DMACmd
                0x00022e30      0x10c Debug/stm32f10x_tim.o
                0x00022e30                TIM_DMACmd
 .text.TIM_InternalClockConfig
                0x00022f3c       0x98 Debug/stm32f10x_tim.o
                0x00022f3c                TIM_InternalClockConfig
 .text.TIM_ITRxExternalClockConfig
                0x00022fd4       0xb0 Debug/stm32f10x_tim.o
                0x00022fd4                TIM_ITRxExternalClockConfig
 .text.TIM_TIxExternalClockConfig
                0x00023084       0xf8 Debug/stm32f10x_tim.o
                0x00023084                TIM_TIxExternalClockConfig
 .text.TIM_ETRClockMode1Config
                0x0002317c       0xf8 Debug/stm32f10x_tim.o
                0x0002317c                TIM_ETRClockMode1Config
 .text.TIM_ETRClockMode2Config
                0x00023274       0xd4 Debug/stm32f10x_tim.o
                0x00023274                TIM_ETRClockMode2Config
 .text.TIM_ETRConfig
                0x00023348       0xf4 Debug/stm32f10x_tim.o
                0x00023348                TIM_ETRConfig
 .text.TIM_PrescalerConfig
                0x0002343c       0xc8 Debug/stm32f10x_tim.o
                0x0002343c                TIM_PrescalerConfig
 .text.TIM_CounterModeConfig
                0x00023504       0xbc Debug/stm32f10x_tim.o
                0x00023504                TIM_CounterModeConfig
 .text.TIM_SelectInputTrigger
                0x000235c0       0xe8 Debug/stm32f10x_tim.o
                0x000235c0                TIM_SelectInputTrigger
 .text.TIM_EncoderInterfaceConfig
                0x000236a8      0x13c Debug/stm32f10x_tim.o
                0x000236a8                TIM_EncoderInterfaceConfig
 .text.TIM_ForcedOC1Config
                0x000237e4       0xc4 Debug/stm32f10x_tim.o
                0x000237e4                TIM_ForcedOC1Config
 .text.TIM_ForcedOC2Config
                0x000238a8       0xb4 Debug/stm32f10x_tim.o
                0x000238a8                TIM_ForcedOC2Config
 .text.TIM_ForcedOC3Config
                0x0002395c       0xa0 Debug/stm32f10x_tim.o
                0x0002395c                TIM_ForcedOC3Config
 .text.TIM_ForcedOC4Config
                0x000239fc       0xa8 Debug/stm32f10x_tim.o
                0x000239fc                TIM_ForcedOC4Config
 .text.TIM_ARRPreloadConfig
                0x00023aa4       0xe4 Debug/stm32f10x_tim.o
                0x00023aa4                TIM_ARRPreloadConfig
 .text.TIM_SelectCOM
                0x00023b88       0x9c Debug/stm32f10x_tim.o
                0x00023b88                TIM_SelectCOM
 .text.TIM_SelectCCDMA
                0x00023c24       0xc8 Debug/stm32f10x_tim.o
                0x00023c24                TIM_SelectCCDMA
 .text.TIM_CCPreloadControl
                0x00023cec       0x9c Debug/stm32f10x_tim.o
                0x00023cec                TIM_CCPreloadControl
 .text.TIM_OC1PreloadConfig
                0x00023d88       0xc4 Debug/stm32f10x_tim.o
                0x00023d88                TIM_OC1PreloadConfig
 .text.TIM_OC2PreloadConfig
                0x00023e4c       0xb4 Debug/stm32f10x_tim.o
                0x00023e4c                TIM_OC2PreloadConfig
 .text.TIM_OC3PreloadConfig
                0x00023f00       0xa0 Debug/stm32f10x_tim.o
                0x00023f00                TIM_OC3PreloadConfig
 .text.TIM_OC4PreloadConfig
                0x00023fa0       0xa8 Debug/stm32f10x_tim.o
                0x00023fa0                TIM_OC4PreloadConfig
 .text.TIM_OC1FastConfig
                0x00024048       0xc4 Debug/stm32f10x_tim.o
                0x00024048                TIM_OC1FastConfig
 .text.TIM_OC2FastConfig
                0x0002410c       0xb4 Debug/stm32f10x_tim.o
                0x0002410c                TIM_OC2FastConfig
 .text.TIM_OC3FastConfig
                0x000241c0       0xa0 Debug/stm32f10x_tim.o
                0x000241c0                TIM_OC3FastConfig
 .text.TIM_OC4FastConfig
                0x00024260       0xa8 Debug/stm32f10x_tim.o
                0x00024260                TIM_OC4FastConfig
 .text.TIM_ClearOC1Ref
                0x00024308       0xa0 Debug/stm32f10x_tim.o
                0x00024308                TIM_ClearOC1Ref
 .text.TIM_ClearOC2Ref
                0x000243a8       0xac Debug/stm32f10x_tim.o
                0x000243a8                TIM_ClearOC2Ref
 .text.TIM_ClearOC3Ref
                0x00024454       0xa0 Debug/stm32f10x_tim.o
                0x00024454                TIM_ClearOC3Ref
 .text.TIM_ClearOC4Ref
                0x000244f4       0xac Debug/stm32f10x_tim.o
                0x000244f4                TIM_ClearOC4Ref
 .text.TIM_OC1PolarityConfig
                0x000245a0       0xc4 Debug/stm32f10x_tim.o
                0x000245a0                TIM_OC1PolarityConfig
 .text.TIM_OC1NPolarityConfig
                0x00024664       0x98 Debug/stm32f10x_tim.o
                0x00024664                TIM_OC1NPolarityConfig
 .text.TIM_OC2PolarityConfig
                0x000246fc       0xb4 Debug/stm32f10x_tim.o
                0x000246fc                TIM_OC2PolarityConfig
 .text.TIM_OC2NPolarityConfig
                0x000247b0       0x7c Debug/stm32f10x_tim.o
                0x000247b0                TIM_OC2NPolarityConfig
 .text.TIM_OC3PolarityConfig
                0x0002482c       0xa8 Debug/stm32f10x_tim.o
                0x0002482c                TIM_OC3PolarityConfig
 .text.TIM_OC3NPolarityConfig
                0x000248d4       0x7c Debug/stm32f10x_tim.o
                0x000248d4                TIM_OC3NPolarityConfig
 .text.TIM_OC4PolarityConfig
                0x00024950       0xa8 Debug/stm32f10x_tim.o
                0x00024950                TIM_OC4PolarityConfig
 .text.TIM_CCxCmd
                0x000249f8      0x10c Debug/stm32f10x_tim.o
                0x000249f8                TIM_CCxCmd
 .text.TIM_CCxNCmd
                0x00024b04       0xd8 Debug/stm32f10x_tim.o
                0x00024b04                TIM_CCxNCmd
 .text.TIM_SelectOCxM
                0x00024bdc      0x198 Debug/stm32f10x_tim.o
                0x00024bdc                TIM_SelectOCxM
 .text.TIM_UpdateDisableConfig
                0x00024d74       0xe4 Debug/stm32f10x_tim.o
                0x00024d74                TIM_UpdateDisableConfig
 .text.TIM_UpdateRequestConfig
                0x00024e58       0xe4 Debug/stm32f10x_tim.o
                0x00024e58                TIM_UpdateRequestConfig
 .text.TIM_SelectHallSensor
                0x00024f3c       0xb0 Debug/stm32f10x_tim.o
                0x00024f3c                TIM_SelectHallSensor
 .text.TIM_SelectOnePulseMode
                0x00024fec       0xe0 Debug/stm32f10x_tim.o
                0x00024fec                TIM_SelectOnePulseMode
 .text.TIM_SelectOutputTrigger
                0x000250cc      0x100 Debug/stm32f10x_tim.o
                0x000250cc                TIM_SelectOutputTrigger
 .text.TIM_SelectSlaveMode
                0x000251cc       0xb8 Debug/stm32f10x_tim.o
                0x000251cc                TIM_SelectSlaveMode
 .text.TIM_SelectMasterSlaveMode
                0x00025284       0xac Debug/stm32f10x_tim.o
                0x00025284                TIM_SelectMasterSlaveMode
 .text.TIM_SetCounter
                0x00025330       0xa8 Debug/stm32f10x_tim.o
                0x00025330                TIM_SetCounter
 .text.TIM_SetAutoreload
                0x000253d8       0xa8 Debug/stm32f10x_tim.o
                0x000253d8                TIM_SetAutoreload
 .text.TIM_SetCompare1
                0x00025480       0x90 Debug/stm32f10x_tim.o
                0x00025480                TIM_SetCompare1
 .text.TIM_SetCompare2
                0x00025510       0x78 Debug/stm32f10x_tim.o
                0x00025510                TIM_SetCompare2
 .text.TIM_SetCompare3
                0x00025588       0x6c Debug/stm32f10x_tim.o
                0x00025588                TIM_SetCompare3
 .text.TIM_SetCompare4
                0x000255f4       0x70 Debug/stm32f10x_tim.o
                0x000255f4                TIM_SetCompare4
 .text.TIM_SetIC1Prescaler
                0x00025664       0xd0 Debug/stm32f10x_tim.o
                0x00025664                TIM_SetIC1Prescaler
 .text.TIM_SetIC2Prescaler
                0x00025734       0xbc Debug/stm32f10x_tim.o
                0x00025734                TIM_SetIC2Prescaler
 .text.TIM_SetIC3Prescaler
                0x000257f0       0xac Debug/stm32f10x_tim.o
                0x000257f0                TIM_SetIC3Prescaler
 .text.TIM_SetIC4Prescaler
                0x0002589c       0xb0 Debug/stm32f10x_tim.o
                0x0002589c                TIM_SetIC4Prescaler
 .text.TIM_SetClockDivision
                0x0002594c       0xcc Debug/stm32f10x_tim.o
                0x0002594c                TIM_SetClockDivision
 .text.TIM_GetCapture1
                0x00025a18       0x90 Debug/stm32f10x_tim.o
                0x00025a18                TIM_GetCapture1
 .text.TIM_GetCapture2
                0x00025aa8       0x78 Debug/stm32f10x_tim.o
                0x00025aa8                TIM_GetCapture2
 .text.TIM_GetCapture3
                0x00025b20       0x6c Debug/stm32f10x_tim.o
                0x00025b20                TIM_GetCapture3
 .text.TIM_GetCapture4
                0x00025b8c       0x6c Debug/stm32f10x_tim.o
                0x00025b8c                TIM_GetCapture4
 .text.TIM_GetCounter
                0x00025bf8       0xa8 Debug/stm32f10x_tim.o
                0x00025bf8                TIM_GetCounter
 .text.TIM_GetPrescaler
                0x00025ca0       0xa8 Debug/stm32f10x_tim.o
                0x00025ca0                TIM_GetPrescaler
 .text.TIM_GetFlagStatus
                0x00025d48      0x128 Debug/stm32f10x_tim.o
                0x00025d48                TIM_GetFlagStatus
 .text.TIM_ClearFlag
                0x00025e70       0xc8 Debug/stm32f10x_tim.o
                0x00025e70                TIM_ClearFlag
 .text.TIM_GetITStatus
                0x00025f38      0x128 Debug/stm32f10x_tim.o
                0x00025f38                TIM_GetITStatus
 .text.TIM_ClearITPendingBit
                0x00026060       0xc8 Debug/stm32f10x_tim.o
                0x00026060                TIM_ClearITPendingBit
 .text.TI1_Config
                0x00026128       0x84 Debug/stm32f10x_tim.o
 .text.TI2_Config
                0x000261ac       0xa4 Debug/stm32f10x_tim.o
 .text.TI3_Config
                0x00026250       0x94 Debug/stm32f10x_tim.o
 .text.TI4_Config
                0x000262e4       0xa4 Debug/stm32f10x_tim.o
 .text          0x00026388        0x0 Debug/stm32f10x_usart.o
 .text.__enable_irq
                0x00026388        0xc Debug/stm32f10x_usart.o
 .text.__disable_irq
                0x00026394        0xc Debug/stm32f10x_usart.o
 .text.__enable_fault_irq
                0x000263a0        0xc Debug/stm32f10x_usart.o
 .text.__disable_fault_irq
                0x000263ac        0xc Debug/stm32f10x_usart.o
 .text.__NOP    0x000263b8        0xc Debug/stm32f10x_usart.o
 .text.__WFI    0x000263c4        0xc Debug/stm32f10x_usart.o
 .text.__WFE    0x000263d0        0xc Debug/stm32f10x_usart.o
 .text.__SEV    0x000263dc        0xc Debug/stm32f10x_usart.o
 .text.__ISB    0x000263e8       0x10 Debug/stm32f10x_usart.o
 .text.__DSB    0x000263f8       0x10 Debug/stm32f10x_usart.o
 .text.__DMB    0x00026408       0x10 Debug/stm32f10x_usart.o
 .text.__CLREX  0x00026418       0x10 Debug/stm32f10x_usart.o
 .text.NVIC_SetPriorityGrouping
                0x00026428       0x4c Debug/stm32f10x_usart.o
 .text.NVIC_GetPriorityGrouping
                0x00026474       0x1c Debug/stm32f10x_usart.o
 .text.NVIC_EnableIRQ
                0x00026490       0x34 Debug/stm32f10x_usart.o
 .text.NVIC_DisableIRQ
                0x000264c4       0x38 Debug/stm32f10x_usart.o
 .text.NVIC_GetPendingIRQ
                0x000264fc       0x4c Debug/stm32f10x_usart.o
 .text.NVIC_SetPendingIRQ
                0x00026548       0x38 Debug/stm32f10x_usart.o
 .text.NVIC_ClearPendingIRQ
                0x00026580       0x38 Debug/stm32f10x_usart.o
 .text.NVIC_GetActive
                0x000265b8       0x4c Debug/stm32f10x_usart.o
 .text.NVIC_SetPriority
                0x00026604       0x58 Debug/stm32f10x_usart.o
 .text.NVIC_GetPriority
                0x0002665c       0x54 Debug/stm32f10x_usart.o
 .text.NVIC_EncodePriority
                0x000266b0       0x7c Debug/stm32f10x_usart.o
 .text.NVIC_DecodePriority
                0x0002672c       0x7c Debug/stm32f10x_usart.o
 .text.SysTick_Config
                0x000267a8       0x54 Debug/stm32f10x_usart.o
 .text.NVIC_SystemReset
                0x000267fc       0x24 Debug/stm32f10x_usart.o
 .text.ITM_SendChar
                0x00026820       0x60 Debug/stm32f10x_usart.o
 .text.ITM_ReceiveChar
                0x00026880       0x38 Debug/stm32f10x_usart.o
 .text.ITM_CheckChar
                0x000268b8       0x28 Debug/stm32f10x_usart.o
 .text.USART_DeInit
                0x000268e0      0x104 Debug/stm32f10x_usart.o
                0x000268e0                USART_DeInit
 .text.USART_Init
                0x000269e4      0x304 Debug/stm32f10x_usart.o
                0x000269e4                USART_Init
 .text.USART_StructInit
                0x00026ce8       0x44 Debug/stm32f10x_usart.o
                0x00026ce8                USART_StructInit
 .text.USART_ClockInit
                0x00026d2c      0x100 Debug/stm32f10x_usart.o
                0x00026d2c                USART_ClockInit
 .text.USART_ClockStructInit
                0x00026e2c       0x34 Debug/stm32f10x_usart.o
                0x00026e2c                USART_ClockStructInit
 .text.USART_Cmd
                0x00026e60       0x9c Debug/stm32f10x_usart.o
                0x00026e60                USART_Cmd
 .text.USART_ITConfig
                0x00026efc      0x184 Debug/stm32f10x_usart.o
                0x00026efc                USART_ITConfig
 .text.USART_DMACmd
                0x00027080       0xbc Debug/stm32f10x_usart.o
                0x00027080                USART_DMACmd
 .text.USART_SetAddress
                0x0002713c       0x94 Debug/stm32f10x_usart.o
                0x0002713c                USART_SetAddress
 .text.USART_WakeUpConfig
                0x000271d0       0x98 Debug/stm32f10x_usart.o
                0x000271d0                USART_WakeUpConfig
 .text.USART_ReceiverWakeUpCmd
                0x00027268       0x9c Debug/stm32f10x_usart.o
                0x00027268                USART_ReceiverWakeUpCmd
 .text.USART_LINBreakDetectLengthConfig
                0x00027304       0x98 Debug/stm32f10x_usart.o
                0x00027304                USART_LINBreakDetectLengthConfig
 .text.USART_LINCmd
                0x0002739c       0x9c Debug/stm32f10x_usart.o
                0x0002739c                USART_LINCmd
 .text.USART_SendData
                0x00027438       0x84 Debug/stm32f10x_usart.o
                0x00027438                USART_SendData
 .text.USART_ReceiveData
                0x000274bc       0x6c Debug/stm32f10x_usart.o
                0x000274bc                USART_ReceiveData
 .text.USART_SendBreak
                0x00027528       0x6c Debug/stm32f10x_usart.o
                0x00027528                USART_SendBreak
 .text.USART_SetGuardTime
                0x00027594       0x70 Debug/stm32f10x_usart.o
                0x00027594                USART_SetGuardTime
 .text.USART_SetPrescaler
                0x00027604       0x84 Debug/stm32f10x_usart.o
                0x00027604                USART_SetPrescaler
 .text.USART_SmartCardCmd
                0x00027688       0x84 Debug/stm32f10x_usart.o
                0x00027688                USART_SmartCardCmd
 .text.USART_SmartCardNACKCmd
                0x0002770c       0x84 Debug/stm32f10x_usart.o
                0x0002770c                USART_SmartCardNACKCmd
 .text.USART_HalfDuplexCmd
                0x00027790       0x9c Debug/stm32f10x_usart.o
                0x00027790                USART_HalfDuplexCmd
 .text.USART_OverSampling8Cmd
                0x0002782c       0xa4 Debug/stm32f10x_usart.o
                0x0002782c                USART_OverSampling8Cmd
 .text.USART_OneBitMethodCmd
                0x000278d0       0x9c Debug/stm32f10x_usart.o
                0x000278d0                USART_OneBitMethodCmd
 .text.USART_IrDAConfig
                0x0002796c       0x98 Debug/stm32f10x_usart.o
                0x0002796c                USART_IrDAConfig
 .text.USART_IrDACmd
                0x00027a04       0x9c Debug/stm32f10x_usart.o
                0x00027a04                USART_IrDACmd
 .text.USART_GetFlagStatus
                0x00027aa0       0xfc Debug/stm32f10x_usart.o
                0x00027aa0                USART_GetFlagStatus
 .text.USART_ClearFlag
                0x00027b9c       0xb4 Debug/stm32f10x_usart.o
                0x00027b9c                USART_ClearFlag
 .text.USART_GetITStatus
                0x00027c50      0x1a4 Debug/stm32f10x_usart.o
                0x00027c50                USART_GetITStatus
 .text.USART_ClearITPendingBit
                0x00027df4       0xe8 Debug/stm32f10x_usart.o
                0x00027df4                USART_ClearITPendingBit
 .text          0x00027edc        0x0 Debug/stm32f10x_fsmc.o
 .text.__enable_irq
                0x00027edc        0xc Debug/stm32f10x_fsmc.o
 .text.__disable_irq
                0x00027ee8        0xc Debug/stm32f10x_fsmc.o
 .text.__enable_fault_irq
                0x00027ef4        0xc Debug/stm32f10x_fsmc.o
 .text.__disable_fault_irq
                0x00027f00        0xc Debug/stm32f10x_fsmc.o
 .text.__NOP    0x00027f0c        0xc Debug/stm32f10x_fsmc.o
 .text.__WFI    0x00027f18        0xc Debug/stm32f10x_fsmc.o
 .text.__WFE    0x00027f24        0xc Debug/stm32f10x_fsmc.o
 .text.__SEV    0x00027f30        0xc Debug/stm32f10x_fsmc.o
 .text.__ISB    0x00027f3c       0x10 Debug/stm32f10x_fsmc.o
 .text.__DSB    0x00027f4c       0x10 Debug/stm32f10x_fsmc.o
 .text.__DMB    0x00027f5c       0x10 Debug/stm32f10x_fsmc.o
 .text.__CLREX  0x00027f6c       0x10 Debug/stm32f10x_fsmc.o
 .text.NVIC_SetPriorityGrouping
                0x00027f7c       0x4c Debug/stm32f10x_fsmc.o
 .text.NVIC_GetPriorityGrouping
                0x00027fc8       0x1c Debug/stm32f10x_fsmc.o
 .text.NVIC_EnableIRQ
                0x00027fe4       0x34 Debug/stm32f10x_fsmc.o
 .text.NVIC_DisableIRQ
                0x00028018       0x38 Debug/stm32f10x_fsmc.o
 .text.NVIC_GetPendingIRQ
                0x00028050       0x4c Debug/stm32f10x_fsmc.o
 .text.NVIC_SetPendingIRQ
                0x0002809c       0x38 Debug/stm32f10x_fsmc.o
 .text.NVIC_ClearPendingIRQ
                0x000280d4       0x38 Debug/stm32f10x_fsmc.o
 .text.NVIC_GetActive
                0x0002810c       0x4c Debug/stm32f10x_fsmc.o
 .text.NVIC_SetPriority
                0x00028158       0x58 Debug/stm32f10x_fsmc.o
 .text.NVIC_GetPriority
                0x000281b0       0x54 Debug/stm32f10x_fsmc.o
 .text.NVIC_EncodePriority
                0x00028204       0x7c Debug/stm32f10x_fsmc.o
 .text.NVIC_DecodePriority
                0x00028280       0x7c Debug/stm32f10x_fsmc.o
 .text.SysTick_Config
                0x000282fc       0x54 Debug/stm32f10x_fsmc.o
 .text.NVIC_SystemReset
                0x00028350       0x24 Debug/stm32f10x_fsmc.o
 .text.ITM_SendChar
                0x00028374       0x60 Debug/stm32f10x_fsmc.o
 .text.ITM_ReceiveChar
                0x000283d4       0x38 Debug/stm32f10x_fsmc.o
 .text.ITM_CheckChar
                0x0002840c       0x28 Debug/stm32f10x_fsmc.o
 .text.FSMC_NORSRAMDeInit
                0x00028434       0x7c Debug/stm32f10x_fsmc.o
                0x00028434                FSMC_NORSRAMDeInit
 .text.FSMC_NANDDeInit
                0x000284b0       0x7c Debug/stm32f10x_fsmc.o
                0x000284b0                FSMC_NANDDeInit
 .text.FSMC_PCCARDDeInit
                0x0002852c       0x38 Debug/stm32f10x_fsmc.o
                0x0002852c                FSMC_PCCARDDeInit
 .text.FSMC_NORSRAMInit
                0x00028564      0x414 Debug/stm32f10x_fsmc.o
                0x00028564                FSMC_NORSRAMInit
 .text.FSMC_NANDInit
                0x00028978      0x25c Debug/stm32f10x_fsmc.o
                0x00028978                FSMC_NANDInit
 .text.FSMC_PCCARDInit
                0x00028bd4      0x1f8 Debug/stm32f10x_fsmc.o
                0x00028bd4                FSMC_PCCARDInit
 .text.FSMC_NORSRAMStructInit
                0x00028dcc      0x100 Debug/stm32f10x_fsmc.o
                0x00028dcc                FSMC_NORSRAMStructInit
 .text.FSMC_NANDStructInit
                0x00028ecc       0x9c Debug/stm32f10x_fsmc.o
                0x00028ecc                FSMC_NANDStructInit
 .text.FSMC_PCCARDStructInit
                0x00028f68       0xa4 Debug/stm32f10x_fsmc.o
                0x00028f68                FSMC_PCCARDStructInit
 .text.FSMC_NORSRAMCmd
                0x0002900c       0x90 Debug/stm32f10x_fsmc.o
                0x0002900c                FSMC_NORSRAMCmd
 .text.FSMC_NANDCmd
                0x0002909c       0xa0 Debug/stm32f10x_fsmc.o
                0x0002909c                FSMC_NANDCmd
 .text.FSMC_PCCARDCmd
                0x0002913c       0x58 Debug/stm32f10x_fsmc.o
                0x0002913c                FSMC_PCCARDCmd
 .text.FSMC_NANDECCCmd
                0x00029194       0xa0 Debug/stm32f10x_fsmc.o
                0x00029194                FSMC_NANDECCCmd
 .text.FSMC_GetECC
                0x00029234       0x38 Debug/stm32f10x_fsmc.o
                0x00029234                FSMC_GetECC
 .text.FSMC_ITConfig
                0x0002926c      0x104 Debug/stm32f10x_fsmc.o
                0x0002926c                FSMC_ITConfig
 .text.FSMC_GetFlagStatus
                0x00029370       0xb4 Debug/stm32f10x_fsmc.o
                0x00029370                FSMC_GetFlagStatus
 .text.FSMC_ClearFlag
                0x00029424       0xa4 Debug/stm32f10x_fsmc.o
                0x00029424                FSMC_ClearFlag
 .text.FSMC_GetITStatus
                0x000294c8       0xd0 Debug/stm32f10x_fsmc.o
                0x000294c8                FSMC_GetITStatus
 .text.FSMC_ClearITPendingBit
                0x00029598       0xb0 Debug/stm32f10x_fsmc.o
                0x00029598                FSMC_ClearITPendingBit
 .text          0x00029648        0x0 Debug/stm32f10x_flash.o
 .text.__enable_irq
                0x00029648        0xc Debug/stm32f10x_flash.o
 .text.__disable_irq
                0x00029654        0xc Debug/stm32f10x_flash.o
 .text.__enable_fault_irq
                0x00029660        0xc Debug/stm32f10x_flash.o
 .text.__disable_fault_irq
                0x0002966c        0xc Debug/stm32f10x_flash.o
 .text.__NOP    0x00029678        0xc Debug/stm32f10x_flash.o
 .text.__WFI    0x00029684        0xc Debug/stm32f10x_flash.o
 .text.__WFE    0x00029690        0xc Debug/stm32f10x_flash.o
 .text.__SEV    0x0002969c        0xc Debug/stm32f10x_flash.o
 .text.__ISB    0x000296a8       0x10 Debug/stm32f10x_flash.o
 .text.__DSB    0x000296b8       0x10 Debug/stm32f10x_flash.o
 .text.__DMB    0x000296c8       0x10 Debug/stm32f10x_flash.o
 .text.__CLREX  0x000296d8       0x10 Debug/stm32f10x_flash.o
 .text.NVIC_SetPriorityGrouping
                0x000296e8       0x4c Debug/stm32f10x_flash.o
 .text.NVIC_GetPriorityGrouping
                0x00029734       0x1c Debug/stm32f10x_flash.o
 .text.NVIC_EnableIRQ
                0x00029750       0x34 Debug/stm32f10x_flash.o
 .text.NVIC_DisableIRQ
                0x00029784       0x38 Debug/stm32f10x_flash.o
 .text.NVIC_GetPendingIRQ
                0x000297bc       0x4c Debug/stm32f10x_flash.o
 .text.NVIC_SetPendingIRQ
                0x00029808       0x38 Debug/stm32f10x_flash.o
 .text.NVIC_ClearPendingIRQ
                0x00029840       0x38 Debug/stm32f10x_flash.o
 .text.NVIC_GetActive
                0x00029878       0x4c Debug/stm32f10x_flash.o
 .text.NVIC_SetPriority
                0x000298c4       0x58 Debug/stm32f10x_flash.o
 .text.NVIC_GetPriority
                0x0002991c       0x54 Debug/stm32f10x_flash.o
 .text.NVIC_EncodePriority
                0x00029970       0x7c Debug/stm32f10x_flash.o
 .text.NVIC_DecodePriority
                0x000299ec       0x7c Debug/stm32f10x_flash.o
 .text.SysTick_Config
                0x00029a68       0x54 Debug/stm32f10x_flash.o
 .text.NVIC_SystemReset
                0x00029abc       0x24 Debug/stm32f10x_flash.o
 .text.ITM_SendChar
                0x00029ae0       0x60 Debug/stm32f10x_flash.o
 .text.ITM_ReceiveChar
                0x00029b40       0x38 Debug/stm32f10x_flash.o
 .text.ITM_CheckChar
                0x00029b78       0x28 Debug/stm32f10x_flash.o
 .text.FLASH_SetLatency
                0x00029ba0       0x58 Debug/stm32f10x_flash.o
                0x00029ba0                FLASH_SetLatency
 .text.FLASH_HalfCycleAccessCmd
                0x00029bf8       0x48 Debug/stm32f10x_flash.o
                0x00029bf8                FLASH_HalfCycleAccessCmd
 .text.FLASH_PrefetchBufferCmd
                0x00029c40       0x48 Debug/stm32f10x_flash.o
                0x00029c40                FLASH_PrefetchBufferCmd
 .text.FLASH_Unlock
                0x00029c88       0x24 Debug/stm32f10x_flash.o
                0x00029c88                FLASH_Unlock
 .text.FLASH_Lock
                0x00029cac       0x1c Debug/stm32f10x_flash.o
                0x00029cac                FLASH_Lock
 .text.FLASH_ErasePage
                0x00029cc8       0x94 Debug/stm32f10x_flash.o
                0x00029cc8                FLASH_ErasePage
 .text.FLASH_EraseAllPages
                0x00029d5c       0x68 Debug/stm32f10x_flash.o
                0x00029d5c                FLASH_EraseAllPages
 .text.FLASH_EraseOptionBytes
                0x00029dc4       0xe4 Debug/stm32f10x_flash.o
                0x00029dc4                FLASH_EraseOptionBytes
 .text.FLASH_ProgramWord
                0x00029ea8       0xd0 Debug/stm32f10x_flash.o
                0x00029ea8                FLASH_ProgramWord
 .text.FLASH_ProgramHalfWord
                0x00029f78       0x8c Debug/stm32f10x_flash.o
                0x00029f78                FLASH_ProgramHalfWord
 .text.FLASH_ProgramOptionByteData
                0x0002a004       0xa4 Debug/stm32f10x_flash.o
                0x0002a004                FLASH_ProgramOptionByteData
 .text.FLASH_EnableWriteProtection
                0x0002a0a8      0x13c Debug/stm32f10x_flash.o
                0x0002a0a8                FLASH_EnableWriteProtection
 .text.FLASH_ReadOutProtection
                0x0002a1e4       0xfc Debug/stm32f10x_flash.o
                0x0002a1e4                FLASH_ReadOutProtection
 .text.FLASH_UserOptionByteConfig
                0x0002a2e0       0xe4 Debug/stm32f10x_flash.o
                0x0002a2e0                FLASH_UserOptionByteConfig
 .text.FLASH_GetUserOptionByte
                0x0002a3c4       0x18 Debug/stm32f10x_flash.o
                0x0002a3c4                FLASH_GetUserOptionByte
 .text.FLASH_GetWriteProtectionOptionByte
                0x0002a3dc       0x14 Debug/stm32f10x_flash.o
                0x0002a3dc                FLASH_GetWriteProtectionOptionByte
 .text.FLASH_GetReadOutProtectionStatus
                0x0002a3f0       0x38 Debug/stm32f10x_flash.o
                0x0002a3f0                FLASH_GetReadOutProtectionStatus
 .text.FLASH_GetPrefetchBufferStatus
                0x0002a428       0x38 Debug/stm32f10x_flash.o
                0x0002a428                FLASH_GetPrefetchBufferStatus
 .text.FLASH_ITConfig
                0x0002a460       0x78 Debug/stm32f10x_flash.o
                0x0002a460                FLASH_ITConfig
 .text.FLASH_GetFlagStatus
                0x0002a4d8       0x8c Debug/stm32f10x_flash.o
                0x0002a4d8                FLASH_GetFlagStatus
 .text.FLASH_ClearFlag
                0x0002a564       0x3c Debug/stm32f10x_flash.o
                0x0002a564                FLASH_ClearFlag
 .text.FLASH_GetStatus
                0x0002a5a0       0x64 Debug/stm32f10x_flash.o
                0x0002a5a0                FLASH_GetStatus
 .text.FLASH_WaitForLastOperation
                0x0002a604       0x4c Debug/stm32f10x_flash.o
                0x0002a604                FLASH_WaitForLastOperation
 .text          0x0002a650        0x0 Debug/stm32f10x_adc.o
 .text.__enable_irq
                0x0002a650        0xc Debug/stm32f10x_adc.o
 .text.__disable_irq
                0x0002a65c        0xc Debug/stm32f10x_adc.o
 .text.__enable_fault_irq
                0x0002a668        0xc Debug/stm32f10x_adc.o
 .text.__disable_fault_irq
                0x0002a674        0xc Debug/stm32f10x_adc.o
 .text.__NOP    0x0002a680        0xc Debug/stm32f10x_adc.o
 .text.__WFI    0x0002a68c        0xc Debug/stm32f10x_adc.o
 .text.__WFE    0x0002a698        0xc Debug/stm32f10x_adc.o
 .text.__SEV    0x0002a6a4        0xc Debug/stm32f10x_adc.o
 .text.__ISB    0x0002a6b0       0x10 Debug/stm32f10x_adc.o
 .text.__DSB    0x0002a6c0       0x10 Debug/stm32f10x_adc.o
 .text.__DMB    0x0002a6d0       0x10 Debug/stm32f10x_adc.o
 .text.__CLREX  0x0002a6e0       0x10 Debug/stm32f10x_adc.o
 .text.NVIC_SetPriorityGrouping
                0x0002a6f0       0x4c Debug/stm32f10x_adc.o
 .text.NVIC_GetPriorityGrouping
                0x0002a73c       0x1c Debug/stm32f10x_adc.o
 .text.NVIC_EnableIRQ
                0x0002a758       0x34 Debug/stm32f10x_adc.o
 .text.NVIC_DisableIRQ
                0x0002a78c       0x38 Debug/stm32f10x_adc.o
 .text.NVIC_GetPendingIRQ
                0x0002a7c4       0x4c Debug/stm32f10x_adc.o
 .text.NVIC_SetPendingIRQ
                0x0002a810       0x38 Debug/stm32f10x_adc.o
 .text.NVIC_ClearPendingIRQ
                0x0002a848       0x38 Debug/stm32f10x_adc.o
 .text.NVIC_GetActive
                0x0002a880       0x4c Debug/stm32f10x_adc.o
 .text.NVIC_SetPriority
                0x0002a8cc       0x58 Debug/stm32f10x_adc.o
 .text.NVIC_GetPriority
                0x0002a924       0x54 Debug/stm32f10x_adc.o
 .text.NVIC_EncodePriority
                0x0002a978       0x7c Debug/stm32f10x_adc.o
 .text.NVIC_DecodePriority
                0x0002a9f4       0x7c Debug/stm32f10x_adc.o
 .text.SysTick_Config
                0x0002aa70       0x54 Debug/stm32f10x_adc.o
 .text.NVIC_SystemReset
                0x0002aac4       0x24 Debug/stm32f10x_adc.o
 .text.ITM_SendChar
                0x0002aae8       0x60 Debug/stm32f10x_adc.o
 .text.ITM_ReceiveChar
                0x0002ab48       0x38 Debug/stm32f10x_adc.o
 .text.ITM_CheckChar
                0x0002ab80       0x28 Debug/stm32f10x_adc.o
 .text.ADC_DeInit
                0x0002aba8       0xa8 Debug/stm32f10x_adc.o
                0x0002aba8                ADC_DeInit
 .text.ADC_Init
                0x0002ac50      0x254 Debug/stm32f10x_adc.o
                0x0002ac50                ADC_Init
 .text.ADC_StructInit
                0x0002aea4       0x44 Debug/stm32f10x_adc.o
                0x0002aea4                ADC_StructInit
 .text.ADC_Cmd  0x0002aee8       0x7c Debug/stm32f10x_adc.o
                0x0002aee8                ADC_Cmd
 .text.ADC_DMACmd
                0x0002af64       0x70 Debug/stm32f10x_adc.o
                0x0002af64                ADC_DMACmd
 .text.ADC_ITConfig
                0x0002afd4       0xac Debug/stm32f10x_adc.o
                0x0002afd4                ADC_ITConfig
 .text.ADC_ResetCalibration
                0x0002b080       0x50 Debug/stm32f10x_adc.o
                0x0002b080                ADC_ResetCalibration
 .text.ADC_GetResetCalibrationStatus
                0x0002b0d0       0x68 Debug/stm32f10x_adc.o
                0x0002b0d0                ADC_GetResetCalibrationStatus
 .text.ADC_StartCalibration
                0x0002b138       0x50 Debug/stm32f10x_adc.o
                0x0002b138                ADC_StartCalibration
 .text.ADC_GetCalibrationStatus
                0x0002b188       0x68 Debug/stm32f10x_adc.o
                0x0002b188                ADC_GetCalibrationStatus
 .text.ADC_SoftwareStartConvCmd
                0x0002b1f0       0x7c Debug/stm32f10x_adc.o
                0x0002b1f0                ADC_SoftwareStartConvCmd
 .text.ADC_GetSoftwareStartConvStatus
                0x0002b26c       0x68 Debug/stm32f10x_adc.o
                0x0002b26c                ADC_GetSoftwareStartConvStatus
 .text.ADC_DiscModeChannelCountConfig
                0x0002b2d4       0x94 Debug/stm32f10x_adc.o
                0x0002b2d4                ADC_DiscModeChannelCountConfig
 .text.ADC_DiscModeCmd
                0x0002b368       0x7c Debug/stm32f10x_adc.o
                0x0002b368                ADC_DiscModeCmd
 .text.ADC_RegularChannelConfig
                0x0002b3e4      0x2c8 Debug/stm32f10x_adc.o
                0x0002b3e4                ADC_RegularChannelConfig
 .text.ADC_ExternalTrigConvCmd
                0x0002b6ac       0x7c Debug/stm32f10x_adc.o
                0x0002b6ac                ADC_ExternalTrigConvCmd
 .text.ADC_GetConversionValue
                0x0002b728       0x4c Debug/stm32f10x_adc.o
                0x0002b728                ADC_GetConversionValue
 .text.ADC_GetDualModeConversionValue
                0x0002b774       0x14 Debug/stm32f10x_adc.o
                0x0002b774                ADC_GetDualModeConversionValue
 .text.ADC_AutoInjectedConvCmd
                0x0002b788       0x7c Debug/stm32f10x_adc.o
                0x0002b788                ADC_AutoInjectedConvCmd
 .text.ADC_InjectedDiscModeCmd
                0x0002b804       0x7c Debug/stm32f10x_adc.o
                0x0002b804                ADC_InjectedDiscModeCmd
 .text.ADC_ExternalTrigInjectedConvConfig
                0x0002b880       0xd8 Debug/stm32f10x_adc.o
                0x0002b880                ADC_ExternalTrigInjectedConvConfig
 .text.ADC_ExternalTrigInjectedConvCmd
                0x0002b958       0x7c Debug/stm32f10x_adc.o
                0x0002b958                ADC_ExternalTrigInjectedConvCmd
 .text.ADC_SoftwareStartInjectedConvCmd
                0x0002b9d4       0x7c Debug/stm32f10x_adc.o
                0x0002b9d4                ADC_SoftwareStartInjectedConvCmd
 .text.ADC_GetSoftwareStartInjectedConvCmdStatus
                0x0002ba50       0x68 Debug/stm32f10x_adc.o
                0x0002ba50                ADC_GetSoftwareStartInjectedConvCmdStatus
 .text.ADC_InjectedChannelConfig
                0x0002bab8      0x248 Debug/stm32f10x_adc.o
                0x0002bab8                ADC_InjectedChannelConfig
 .text.ADC_InjectedSequencerLengthConfig
                0x0002bd00       0x94 Debug/stm32f10x_adc.o
                0x0002bd00                ADC_InjectedSequencerLengthConfig
 .text.ADC_SetInjectedOffset
                0x0002bd94       0x98 Debug/stm32f10x_adc.o
                0x0002bd94                ADC_SetInjectedOffset
 .text.ADC_GetInjectedConversionValue
                0x0002be2c       0x88 Debug/stm32f10x_adc.o
                0x0002be2c                ADC_GetInjectedConversionValue
 .text.ADC_AnalogWatchdogCmd
                0x0002beb4       0xb8 Debug/stm32f10x_adc.o
                0x0002beb4                ADC_AnalogWatchdogCmd
 .text.ADC_AnalogWatchdogThresholdsConfig
                0x0002bf6c       0x80 Debug/stm32f10x_adc.o
                0x0002bf6c                ADC_AnalogWatchdogThresholdsConfig
 .text.ADC_AnalogWatchdogSingleChannelConfig
                0x0002bfec       0xe0 Debug/stm32f10x_adc.o
                0x0002bfec                ADC_AnalogWatchdogSingleChannelConfig
 .text.ADC_TempSensorVrefintCmd
                0x0002c0cc       0x50 Debug/stm32f10x_adc.o
                0x0002c0cc                ADC_TempSensorVrefintCmd
 .text.ADC_GetFlagStatus
                0x0002c11c       0x94 Debug/stm32f10x_adc.o
                0x0002c11c                ADC_GetFlagStatus
 .text.ADC_ClearFlag
                0x0002c1b0       0x6c Debug/stm32f10x_adc.o
                0x0002c1b0                ADC_ClearFlag
 .text.ADC_GetITStatus
                0x0002c21c       0xb8 Debug/stm32f10x_adc.o
                0x0002c21c                ADC_GetITStatus
 .text.ADC_ClearITPendingBit
                0x0002c2d4       0x80 Debug/stm32f10x_adc.o
                0x0002c2d4                ADC_ClearITPendingBit
 .text          0x0002c354        0x0 Debug/stm32f10x_exti.o
 .text.__enable_irq
                0x0002c354        0xc Debug/stm32f10x_exti.o
 .text.__disable_irq
                0x0002c360        0xc Debug/stm32f10x_exti.o
 .text.__enable_fault_irq
                0x0002c36c        0xc Debug/stm32f10x_exti.o
 .text.__disable_fault_irq
                0x0002c378        0xc Debug/stm32f10x_exti.o
 .text.__NOP    0x0002c384        0xc Debug/stm32f10x_exti.o
 .text.__WFI    0x0002c390        0xc Debug/stm32f10x_exti.o
 .text.__WFE    0x0002c39c        0xc Debug/stm32f10x_exti.o
 .text.__SEV    0x0002c3a8        0xc Debug/stm32f10x_exti.o
 .text.__ISB    0x0002c3b4       0x10 Debug/stm32f10x_exti.o
 .text.__DSB    0x0002c3c4       0x10 Debug/stm32f10x_exti.o
 .text.__DMB    0x0002c3d4       0x10 Debug/stm32f10x_exti.o
 .text.__CLREX  0x0002c3e4       0x10 Debug/stm32f10x_exti.o
 .text.NVIC_SetPriorityGrouping
                0x0002c3f4       0x4c Debug/stm32f10x_exti.o
 .text.NVIC_GetPriorityGrouping
                0x0002c440       0x1c Debug/stm32f10x_exti.o
 .text.NVIC_EnableIRQ
                0x0002c45c       0x34 Debug/stm32f10x_exti.o
 .text.NVIC_DisableIRQ
                0x0002c490       0x38 Debug/stm32f10x_exti.o
 .text.NVIC_GetPendingIRQ
                0x0002c4c8       0x4c Debug/stm32f10x_exti.o
 .text.NVIC_SetPendingIRQ
                0x0002c514       0x38 Debug/stm32f10x_exti.o
 .text.NVIC_ClearPendingIRQ
                0x0002c54c       0x38 Debug/stm32f10x_exti.o
 .text.NVIC_GetActive
                0x0002c584       0x4c Debug/stm32f10x_exti.o
 .text.NVIC_SetPriority
                0x0002c5d0       0x58 Debug/stm32f10x_exti.o
 .text.NVIC_GetPriority
                0x0002c628       0x54 Debug/stm32f10x_exti.o
 .text.NVIC_EncodePriority
                0x0002c67c       0x7c Debug/stm32f10x_exti.o
 .text.NVIC_DecodePriority
                0x0002c6f8       0x7c Debug/stm32f10x_exti.o
 .text.SysTick_Config
                0x0002c774       0x54 Debug/stm32f10x_exti.o
 .text.NVIC_SystemReset
                0x0002c7c8       0x24 Debug/stm32f10x_exti.o
 .text.ITM_SendChar
                0x0002c7ec       0x60 Debug/stm32f10x_exti.o
 .text.ITM_ReceiveChar
                0x0002c84c       0x38 Debug/stm32f10x_exti.o
 .text.ITM_CheckChar
                0x0002c884       0x28 Debug/stm32f10x_exti.o
 .text.EXTI_DeInit
                0x0002c8ac       0x38 Debug/stm32f10x_exti.o
                0x0002c8ac                EXTI_DeInit
 .text.EXTI_Init
                0x0002c8e4      0x174 Debug/stm32f10x_exti.o
                0x0002c8e4                EXTI_Init
 .text.EXTI_StructInit
                0x0002ca58       0x34 Debug/stm32f10x_exti.o
                0x0002ca58                EXTI_StructInit
 .text.EXTI_GenerateSWInterrupt
                0x0002ca8c       0x44 Debug/stm32f10x_exti.o
                0x0002ca8c                EXTI_GenerateSWInterrupt
 .text.EXTI_GetFlagStatus
                0x0002cad0       0xd8 Debug/stm32f10x_exti.o
                0x0002cad0                EXTI_GetFlagStatus
 .text.EXTI_ClearFlag
                0x0002cba8       0x3c Debug/stm32f10x_exti.o
                0x0002cba8                EXTI_ClearFlag
 .text.EXTI_GetITStatus
                0x0002cbe4       0xf0 Debug/stm32f10x_exti.o
                0x0002cbe4                EXTI_GetITStatus
 .text.EXTI_ClearITPendingBit
                0x0002ccd4       0x3c Debug/stm32f10x_exti.o
                0x0002ccd4                EXTI_ClearITPendingBit
 .text          0x0002cd10        0x0 Debug/list.o
 .text.vListInitialise
                0x0002cd10       0x48 Debug/list.o
                0x0002cd10                vListInitialise
 .text.vListInitialiseItem
                0x0002cd58       0x1c Debug/list.o
                0x0002cd58                vListInitialiseItem
 .text.vListInsertEnd
                0x0002cd74       0x50 Debug/list.o
                0x0002cd74                vListInsertEnd
 .text.vListInsert
                0x0002cdc4       0x74 Debug/list.o
                0x0002cdc4                vListInsert
 .text.vListRemove
                0x0002ce38       0x54 Debug/list.o
                0x0002ce38                vListRemove
 .text          0x0002ce8c        0x0 Debug/queue.o
 .text.xQueueCreate
                0x0002ce8c       0xcc Debug/queue.o
                0x0002ce8c                xQueueCreate
 .text.xQueueCreateMutex
                0x0002cf58       0x98 Debug/queue.o
                0x0002cf58                xQueueCreateMutex
 .text.xQueueGiveMutexRecursive
                0x0002cff0       0x58 Debug/queue.o
                0x0002cff0                xQueueGiveMutexRecursive
 .text.xQueueTakeMutexRecursive
                0x0002d048       0x5c Debug/queue.o
                0x0002d048                xQueueTakeMutexRecursive
 .text.xQueueGenericSend
                0x0002d0a4      0x120 Debug/queue.o
                0x0002d0a4                xQueueGenericSend
 .text.xQueueGenericSendFromISR
                0x0002d1c4       0x90 Debug/queue.o
                0x0002d1c4                xQueueGenericSendFromISR
 .text.xQueueGenericReceive
                0x0002d254      0x188 Debug/queue.o
                0x0002d254                xQueueGenericReceive
 .text.xQueueReceiveFromISR
                0x0002d3dc       0x94 Debug/queue.o
                0x0002d3dc                xQueueReceiveFromISR
 .text.uxQueueMessagesWaiting
                0x0002d470       0x24 Debug/queue.o
                0x0002d470                uxQueueMessagesWaiting
 .text.uxQueueMessagesWaitingFromISR
                0x0002d494       0x1c Debug/queue.o
                0x0002d494                uxQueueMessagesWaitingFromISR
 .text.vQueueDelete
                0x0002d4b0       0x20 Debug/queue.o
                0x0002d4b0                vQueueDelete
 .text.prvCopyDataToQueue
                0x0002d4d0       0xc4 Debug/queue.o
 .text.prvCopyDataFromQueue
                0x0002d594       0x50 Debug/queue.o
 .text.prvUnlockQueue
                0x0002d5e4       0xa0 Debug/queue.o
 .text.prvIsQueueEmpty
                0x0002d684       0x2c Debug/queue.o
 .text.xQueueIsQueueEmptyFromISR
                0x0002d6b0       0x24 Debug/queue.o
                0x0002d6b0                xQueueIsQueueEmptyFromISR
 .text.prvIsQueueFull
                0x0002d6d4       0x30 Debug/queue.o
 .text.xQueueIsQueueFullFromISR
                0x0002d704       0x28 Debug/queue.o
                0x0002d704                xQueueIsQueueFullFromISR
 .text          0x0002d72c        0x0 Debug/tasks.o
 .text.xTaskGenericCreate
                0x0002d72c      0x160 Debug/tasks.o
                0x0002d72c                xTaskGenericCreate
 .text.vTaskDelete
                0x0002d88c       0xa4 Debug/tasks.o
                0x0002d88c                vTaskDelete
 .text.vTaskDelayUntil
                0x0002d930       0xe0 Debug/tasks.o
                0x0002d930                vTaskDelayUntil
 .text.vTaskDelay
                0x0002da10       0x94 Debug/tasks.o
                0x0002da10                vTaskDelay
 .text.uxTaskPriorityGet
                0x0002daa4       0x38 Debug/tasks.o
                0x0002daa4                uxTaskPriorityGet
 .text.vTaskPrioritySet
                0x0002dadc      0x114 Debug/tasks.o
                0x0002dadc                vTaskPrioritySet
 .text.vTaskSuspend
                0x0002dbf0       0x78 Debug/tasks.o
                0x0002dbf0                vTaskSuspend
 .text.xTaskIsTaskSuspended
                0x0002dc68       0x4c Debug/tasks.o
                0x0002dc68                xTaskIsTaskSuspended
 .text.vTaskResume
                0x0002dcb4       0x9c Debug/tasks.o
                0x0002dcb4                vTaskResume
 .text.xTaskResumeFromISR
                0x0002dd50       0xb0 Debug/tasks.o
                0x0002dd50                xTaskResumeFromISR
 .text.vTaskStartScheduler
                0x0002de00       0x6c Debug/tasks.o
                0x0002de00                vTaskStartScheduler
 .text.vTaskEndScheduler
                0x0002de6c       0x20 Debug/tasks.o
                0x0002de6c                vTaskEndScheduler
 .text.vTaskSuspendAll
                0x0002de8c       0x1c Debug/tasks.o
                0x0002de8c                vTaskSuspendAll
 .text.xTaskResumeAll
                0x0002dea8      0x11c Debug/tasks.o
                0x0002dea8                xTaskResumeAll
 .text.xTaskGetTickCount
                0x0002dfc4       0x24 Debug/tasks.o
                0x0002dfc4                xTaskGetTickCount
 .text.uxTaskGetNumberOfTasks
                0x0002dfe8       0x14 Debug/tasks.o
                0x0002dfe8                uxTaskGetNumberOfTasks
 .text.vTaskList
                0x0002dffc      0x104 Debug/tasks.o
                0x0002dffc                vTaskList
 .text.vTaskStartTrace
                0x0002e100       0x4c Debug/tasks.o
                0x0002e100                vTaskStartTrace
 .text.ulTaskEndTrace
                0x0002e14c       0x3c Debug/tasks.o
                0x0002e14c                ulTaskEndTrace
 .text.vTaskIncrementTick
                0x0002e188       0xec Debug/tasks.o
                0x0002e188                vTaskIncrementTick
 .text.vTaskCleanUpResources
                0x0002e274      0x188 Debug/tasks.o
                0x0002e274                vTaskCleanUpResources
 .text.vTaskSwitchContext
                0x0002e3fc      0x17c Debug/tasks.o
                0x0002e3fc                vTaskSwitchContext
 .text.vTaskPlaceOnEventList
                0x0002e578       0xa4 Debug/tasks.o
                0x0002e578                vTaskPlaceOnEventList
 .text.xTaskRemoveFromEventList
                0x0002e61c       0xc4 Debug/tasks.o
                0x0002e61c                xTaskRemoveFromEventList
 .text.vTaskSetTimeOutState
                0x0002e6e0       0x2c Debug/tasks.o
                0x0002e6e0                vTaskSetTimeOutState
 .text.xTaskCheckForTimeOut
                0x0002e70c       0x94 Debug/tasks.o
                0x0002e70c                xTaskCheckForTimeOut
 .text.vTaskMissedYield
                0x0002e7a0       0x18 Debug/tasks.o
                0x0002e7a0                vTaskMissedYield
 .text.prvIdleTask
                0x0002e7b8       0x24 Debug/tasks.o
 .text.prvInitialiseTCBVariables
                0x0002e7dc       0x7c Debug/tasks.o
 .text.prvInitialiseTaskLists
                0x0002e858       0x88 Debug/tasks.o
 .text.prvCheckTasksWaitingTermination
                0x0002e8e0       0x8c Debug/tasks.o
 .text.prvAllocateTCBAndStack
                0x0002e96c       0x6c Debug/tasks.o
 .text.prvListTaskWithinSingleList
                0x0002e9d8       0xbc Debug/tasks.o
 .text.usTaskCheckFreeStackSpace
                0x0002ea94       0x38 Debug/tasks.o
 .text.uxTaskGetStackHighWaterMark
                0x0002eacc       0x38 Debug/tasks.o
                0x0002eacc                uxTaskGetStackHighWaterMark
 .text.prvDeleteTCB
                0x0002eb04       0x20 Debug/tasks.o
 .text.xTaskGetCurrentTaskHandle
                0x0002eb24       0x20 Debug/tasks.o
                0x0002eb24                xTaskGetCurrentTaskHandle
 .text.vTaskPriorityInherit
                0x0002eb44       0xb4 Debug/tasks.o
                0x0002eb44                vTaskPriorityInherit
 .text.vTaskPriorityDisinherit
                0x0002ebf8       0x88 Debug/tasks.o
                0x0002ebf8                vTaskPriorityDisinherit
 .text          0x0002ec80        0x0 Debug/port.o
 .text.pxPortInitialiseStack
                0x0002ec80       0x60 Debug/port.o
                0x0002ec80                pxPortInitialiseStack
 .text.SVC_Handler
                0x0002ece0       0x20 Debug/port.o
                0x0002ece0                SVC_Handler
 .text.vPortStartFirstTask
                0x0002ed00       0x10 Debug/port.o
                0x0002ed00                vPortStartFirstTask
 .text.xPortStartScheduler
                0x0002ed10       0x3c Debug/port.o
                0x0002ed10                xPortStartScheduler
 .text.vPortEndScheduler
                0x0002ed4c        0xc Debug/port.o
                0x0002ed4c                vPortEndScheduler
 .text.vPortYieldFromISR
                0x0002ed58       0x18 Debug/port.o
                0x0002ed58                vPortYieldFromISR
 .text.vPortEnterCritical
                0x0002ed70       0x24 Debug/port.o
                0x0002ed70                vPortEnterCritical
 .text.vPortExitCritical
                0x0002ed94       0x2c Debug/port.o
                0x0002ed94                vPortExitCritical
 .text.PendSV_Handler
                0x0002edc0       0x3c Debug/port.o
                0x0002edc0                PendSV_Handler
 .text.SysTick_Handler
                0x0002edfc       0x34 Debug/port.o
                0x0002edfc                SysTick_Handler
 .text.prvSetupTimerInterrupt
                0x0002ee30       0x24 Debug/port.o
 .text          0x0002ee54        0x0 Debug/heap_2.o
 .text.pvPortMalloc
                0x0002ee54      0x164 Debug/heap_2.o
                0x0002ee54                pvPortMalloc
 .text.vPortFree
                0x0002efb8       0x7c Debug/heap_2.o
                0x0002efb8                vPortFree
 .text.xPortGetFreeHeapSize
                0x0002f034       0x14 Debug/heap_2.o
                0x0002f034                xPortGetFreeHeapSize
 .text.vPortInitialiseBlocks
                0x0002f048        0xc Debug/heap_2.o
                0x0002f048                vPortInitialiseBlocks
 .text          0x0002f054        0x0 Debug/startup_stm32f10x.o
 .text.Reset_Handler
                0x0002f054       0x7c Debug/startup_stm32f10x.o
                0x0002f054                Reset_Handler
 .text.Default_Handler
                0x0002f0d0        0x4 Debug/startup_stm32f10x.o
                0x0002f0d0                EXTI2_IRQHandler
                0x0002f0d0                TIM8_TRG_COM_IRQHandler
                0x0002f0d0                TIM8_CC_IRQHandler
                0x0002f0d0                TIM1_CC_IRQHandler
                0x0002f0d0                TIM6_IRQHandler
                0x0002f0d0                PVD_IRQHandler
                0x0002f0d0                SDIO_IRQHandler
                0x0002f0d0                EXTI3_IRQHandler
                0x0002f0d0                EXTI0_IRQHandler
                0x0002f0d0                I2C2_EV_IRQHandler
                0x0002f0d0                ADC1_2_IRQHandler
                0x0002f0d0                SPI1_IRQHandler
                0x0002f0d0                TAMPER_IRQHandler
                0x0002f0d0                TIM8_UP_IRQHandler
                0x0002f0d0                DMA2_Channel2_IRQHandler
                0x0002f0d0                DMA1_Channel4_IRQHandler
                0x0002f0d0                USART3_IRQHandler
                0x0002f0d0                RTC_IRQHandler
                0x0002f0d0                DMA1_Channel7_IRQHandler
                0x0002f0d0                CAN1_RX1_IRQHandler
                0x0002f0d0                UART5_IRQHandler
                0x0002f0d0                ADC3_IRQHandler
                0x0002f0d0                TIM4_IRQHandler
                0x0002f0d0                DMA2_Channel1_IRQHandler
                0x0002f0d0                I2C1_EV_IRQHandler
                0x0002f0d0                DMA1_Channel6_IRQHandler
                0x0002f0d0                UART4_IRQHandler
                0x0002f0d0                RCC_IRQHandler
                0x0002f0d0                TIM1_TRG_COM_IRQHandler
                0x0002f0d0                DMA1_Channel1_IRQHandler
                0x0002f0d0                Default_Handler
                0x0002f0d0                EXTI15_10_IRQHandler
                0x0002f0d0                TIM7_IRQHandler
                0x0002f0d0                TIM5_IRQHandler
                0x0002f0d0                EXTI9_5_IRQHandler
                0x0002f0d0                SPI2_IRQHandler
                0x0002f0d0                DMA1_Channel5_IRQHandler
                0x0002f0d0                USB_LP_CAN1_RX0_IRQHandler
                0x0002f0d0                USB_HP_CAN1_TX_IRQHandler
                0x0002f0d0                DMA1_Channel3_IRQHandler
                0x0002f0d0                FSMC_IRQHandler
                0x0002f0d0                TIM1_UP_IRQHandler
                0x0002f0d0                WWDG_IRQHandler
                0x0002f0d0                TIM2_IRQHandler
                0x0002f0d0                TIM1_BRK_IRQHandler
                0x0002f0d0                EXTI1_IRQHandler
                0x0002f0d0                RTCAlarm_IRQHandler
                0x0002f0d0                DMA2_Channel4_5_IRQHandler
                0x0002f0d0                USART2_IRQHandler
                0x0002f0d0                I2C2_ER_IRQHandler
                0x0002f0d0                DMA1_Channel2_IRQHandler
                0x0002f0d0                TIM8_BRK_IRQHandler
                0x0002f0d0                CAN1_SCE_IRQHandler
                0x0002f0d0                FLASH_IRQHandler
                0x0002f0d0                SPI3_IRQHandler
                0x0002f0d0                I2C1_ER_IRQHandler
                0x0002f0d0                USBWakeUp_IRQHandler
                0x0002f0d0                DMA2_Channel3_IRQHandler
 .text.SystemInit_ExtMemCtl_Dummy
                0x0002f0d4        0x4 Debug/startup_stm32f10x.o
                0x0002f0d4                SystemInit_ExtMemCtl_Dummy
                0x0002f0d4                SystemInit_ExtMemCtl
 .text          0x0002f0d8      0x128 /usr/local/CodeSourcery/bin/../lib/gcc/arm-none-eabi/4.5.2/../../../../arm-none-eabi/lib/thumb2/libm.a(lib_a-s_floor.o)
                0x0002f0d8                floor
 .text          0x0002f200      0x370 /usr/local/CodeSourcery/bin/../lib/gcc/arm-none-eabi/4.5.2/thumb2/libgcc.a(_arm_addsubdf3.o)
                0x0002f200                __aeabi_drsub
                0x0002f208                __aeabi_dsub
                0x0002f208                __subdf3
                0x0002f20c                __adddf3
                0x0002f20c                __aeabi_dadd
                0x0002f484                __aeabi_ui2d
                0x0002f484                __floatunsidf
                0x0002f4a4                __floatsidf
                0x0002f4a4                __aeabi_i2d
                0x0002f4c8                __extendsfdf2
                0x0002f4c8                __aeabi_f2d
                0x0002f504                __aeabi_ul2d
                0x0002f504                __floatundidf
                0x0002f514                __floatdidf
                0x0002f514                __aeabi_l2d
 .text          0x0002f570      0x424 /usr/local/CodeSourcery/bin/../lib/gcc/arm-none-eabi/4.5.2/thumb2/libgcc.a(_arm_muldivdf3.o)
                0x0002f570                __aeabi_dmul
                0x0002f570                __muldf3
                0x0002f7c4                __aeabi_ddiv
                0x0002f7c4                __divdf3
 .text          0x0002f994      0x110 /usr/local/CodeSourcery/bin/../lib/gcc/arm-none-eabi/4.5.2/thumb2/libgcc.a(_arm_cmpdf2.o)
                0x0002f994                __gtdf2
                0x0002f994                __gedf2
                0x0002f99c                __ltdf2
                0x0002f99c                __ledf2
                0x0002f9a4                __cmpdf2
                0x0002f9a4                __eqdf2
                0x0002f9a4                __nedf2
                0x0002fa20                __aeabi_cdrcmple
                0x0002fa30                __aeabi_cdcmple
                0x0002fa30                __aeabi_cdcmpeq
                0x0002fa40                __aeabi_dcmpeq
                0x0002fa54                __aeabi_dcmplt
                0x0002fa68                __aeabi_dcmple
                0x0002fa7c                __aeabi_dcmpge
                0x0002fa90                __aeabi_dcmpgt
 .text          0x0002faa4       0x40 /usr/local/CodeSourcery/bin/../lib/gcc/arm-none-eabi/4.5.2/thumb2/libgcc.a(_arm_fixunsdfsi.o)
                0x0002faa4                __fixunsdfsi
                0x0002faa4                __aeabi_d2uiz
 .text          0x0002fae4       0xa0 /usr/local/CodeSourcery/bin/../lib/gcc/arm-none-eabi/4.5.2/thumb2/libgcc.a(_arm_truncdfsf2.o)
                0x0002fae4                __aeabi_d2f
                0x0002fae4                __truncdfsf2
 .text          0x0002fb84      0x21c /usr/local/CodeSourcery/bin/../lib/gcc/arm-none-eabi/4.5.2/thumb2/libgcc.a(_arm_addsubsf3.o)
                0x0002fb84                __aeabi_frsub
                0x0002fb8c                __subsf3
                0x0002fb8c                __aeabi_fsub
                0x0002fb90                __aeabi_fadd
                0x0002fb90                __addsf3
                0x0002fcf0                __aeabi_ui2f
                0x0002fcf0                __floatunsisf
                0x0002fcf8                __aeabi_i2f
                0x0002fcf8                __floatsisf
                0x0002fd14                __floatundisf
                0x0002fd14                __aeabi_ul2f
                0x0002fd24                __floatdisf
                0x0002fd24                __aeabi_l2f
 .text          0x0002fda0      0x2a0 /usr/local/CodeSourcery/bin/../lib/gcc/arm-none-eabi/4.5.2/thumb2/libgcc.a(_arm_muldivsf3.o)
                0x0002fda0                __mulsf3
                0x0002fda0                __aeabi_fmul
                0x0002ff08                __divsf3
                0x0002ff08                __aeabi_fdiv
 .text          0x00030040       0xec /usr/local/CodeSourcery/bin/../lib/gcc/arm-none-eabi/4.5.2/thumb2/libgcc.a(_arm_cmpsf2.o)
                0x00030040                __gtsf2
                0x00030040                __gesf2
                0x00030048                __lesf2
                0x00030048                __ltsf2
                0x00030050                __nesf2
                0x00030050                __eqsf2
                0x00030050                __cmpsf2
                0x000300b0                __aeabi_cfrcmple
                0x000300b8                __aeabi_cfcmple
                0x000300b8                __aeabi_cfcmpeq
                0x000300c8                __aeabi_fcmpeq
                0x000300dc                __aeabi_fcmplt
                0x000300f0                __aeabi_fcmple
                0x00030104                __aeabi_fcmpge
                0x00030118                __aeabi_fcmpgt
 .text          0x0003012c       0x4c /usr/local/CodeSourcery/bin/../lib/gcc/arm-none-eabi/4.5.2/thumb2/libgcc.a(_arm_fixsfsi.o)
                0x0003012c                __fixsfsi
                0x0003012c                __aeabi_f2iz
 .text          0x00030178        0x8 /usr/local/CodeSourcery/bin/../lib/gcc/arm-none-eabi/4.5.2/../../../../arm-none-eabi/lib/thumb2/libc.a(lib_a-atof.o)
                0x00030178                atof
 .text          0x00030180       0x10 /usr/local/CodeSourcery/bin/../lib/gcc/arm-none-eabi/4.5.2/../../../../arm-none-eabi/lib/thumb2/libc.a(lib_a-atoi.o)
                0x00030180                atoi
                0x00030188                _atoi_r
 .text          0x00030190      0x1ec /usr/local/CodeSourcery/bin/../lib/gcc/arm-none-eabi/4.5.2/../../../../arm-none-eabi/lib/thumb2/libc.a(lib_a-fflush.o)
                0x00030190                _fflush_r
                0x00030354                fflush
 .text          0x0003037c      0x220 /usr/local/CodeSourcery/bin/../lib/gcc/arm-none-eabi/4.5.2/../../../../arm-none-eabi/lib/thumb2/libc.a(lib_a-findfp.o)
                0x00030384                _cleanup_r
                0x00030390                __sfmoreglue
                0x000303c0                _cleanup
                0x000303cc                __sinit
                0x000304d4                __sfp
                0x0003055c                __sfp_lock_acquire
                0x00030560                __sfp_lock_release
                0x00030564                __sinit_lock_acquire
                0x00030568                __sinit_lock_release
                0x0003056c                __fp_lock_all
                0x00030584                __fp_unlock_all
 .text          0x0003059c       0xac /usr/local/CodeSourcery/bin/../lib/gcc/arm-none-eabi/4.5.2/../../../../arm-none-eabi/lib/thumb2/libc.a(lib_a-fwalk.o)
                0x0003059c                _fwalk
                0x000305f0                _fwalk_reent
 .text          0x00030648        0x0 /usr/local/CodeSourcery/bin/../lib/gcc/arm-none-eabi/4.5.2/../../../../arm-none-eabi/lib/thumb2/libc.a(lib_a-impure.o)
 .text          0x00030648       0x20 /usr/local/CodeSourcery/bin/../lib/gcc/arm-none-eabi/4.5.2/../../../../arm-none-eabi/lib/thumb2/libc.a(lib_a-malloc.o)
                0x00030648                malloc
                0x00030658                free
 .text          0x00030668       0x64 /usr/local/CodeSourcery/bin/../lib/gcc/arm-none-eabi/4.5.2/../../../../arm-none-eabi/lib/thumb2/libc.a(lib_a-memcmp.o)
                0x00030668                memcmp
 .text          0x000306cc      0x150 /usr/local/CodeSourcery/bin/../lib/gcc/arm-none-eabi/4.5.2/../../../../arm-none-eabi/lib/thumb2/libc.a(lib_a-memcpy.o)
                0x000306cc                memcpy
 .text          0x0003081c       0xb4 /usr/local/CodeSourcery/bin/../lib/gcc/arm-none-eabi/4.5.2/../../../../arm-none-eabi/lib/thumb2/libc.a(lib_a-memset.o)
                0x0003081c                memset
 .text          0x000308d0       0x4c /usr/local/CodeSourcery/bin/../lib/gcc/arm-none-eabi/4.5.2/../../../../arm-none-eabi/lib/thumb2/libc.a(lib_a-putchar.o)
                0x000308d0                _putchar_r
                0x000308f4                putchar
 .text          0x0003091c       0x88 /usr/local/CodeSourcery/bin/../lib/gcc/arm-none-eabi/4.5.2/../../../../arm-none-eabi/lib/thumb2/libc.a(lib_a-puts.o)
                0x0003091c                _puts_r
                0x00030994                puts
 .text          0x000309a4      0x118 /usr/local/CodeSourcery/bin/../lib/gcc/arm-none-eabi/4.5.2/../../../../arm-none-eabi/lib/thumb2/libc.a(lib_a-reent.o)
                0x000309a4                cleanup_glue
                0x000309c0                _reclaim_reent
                0x00030a80                _wrapup_reent
 .text          0x00030abc       0x94 /usr/local/CodeSourcery/bin/../lib/gcc/arm-none-eabi/4.5.2/../../../../arm-none-eabi/lib/thumb2/libc.a(lib_a-stdio.o)
                0x00030abc                __sread
                0x00030ae0                __seofread
                0x00030ae4                __swrite
                0x00030b20                __sseek
                0x00030b48                __sclose
 .text          0x00030b50       0x48 /usr/local/CodeSourcery/bin/../lib/gcc/arm-none-eabi/4.5.2/../../../../arm-none-eabi/lib/thumb2/libc.a(lib_a-strcat.o)
                0x00030b50                strcat
 .text          0x00030b98      0x1dc /usr/local/CodeSourcery/bin/../lib/gcc/arm-none-eabi/4.5.2/../../../../arm-none-eabi/lib/thumb2/libc.a(lib_a-strcmp.o)
                0x00030b98                strcmp
 .text          0x00030d74       0xbc /usr/local/CodeSourcery/bin/../lib/gcc/arm-none-eabi/4.5.2/../../../../arm-none-eabi/lib/thumb2/libc.a(lib_a-strcpy.o)
                0x00030d74                strcpy
 .text          0x00030e30       0x60 /usr/local/CodeSourcery/bin/../lib/gcc/arm-none-eabi/4.5.2/../../../../arm-none-eabi/lib/thumb2/libc.a(lib_a-strlen.o)
                0x00030e30                strlen
 .text          0x00030e90       0x78 /usr/local/CodeSourcery/bin/../lib/gcc/arm-none-eabi/4.5.2/../../../../arm-none-eabi/lib/thumb2/libc.a(lib_a-strncpy.o)
                0x00030e90                strncpy
 .text          0x00030f08     0x10a0 /usr/local/CodeSourcery/bin/../lib/gcc/arm-none-eabi/4.5.2/../../../../arm-none-eabi/lib/thumb2/libc.a(lib_a-strtod.o)
                0x00030f38                _strtod_r
                0x00031ed4                strtod
                0x00031ee8                strtof
 .text          0x00031fa8      0x17c /usr/local/CodeSourcery/bin/../lib/gcc/arm-none-eabi/4.5.2/../../../../arm-none-eabi/lib/thumb2/libc.a(lib_a-strtol.o)
                0x00031fa8                _strtol_r
                0x0003210c                strtol
 .text          0x00032124       0x7c /usr/local/CodeSourcery/bin/../lib/gcc/arm-none-eabi/4.5.2/../../../../arm-none-eabi/lib/thumb2/libc.a(lib_a-vsnprintf.o)
                0x00032124                _vsnprintf_r
                0x0003217c                vsnprintf
 .text          0x000321a0       0x2c /usr/local/CodeSourcery/bin/../lib/gcc/arm-none-eabi/4.5.2/../../../../arm-none-eabi/lib/thumb2/libc.a(lib_a-writer.o)
                0x000321a0                _write_r
 .text          0x000321cc       0x28 /usr/local/CodeSourcery/bin/../lib/gcc/arm-none-eabi/4.5.2/../../../../arm-none-eabi/lib/thumb2/libc.a(lib_a-closer.o)
                0x000321cc                _close_r
 .text          0x000321f4        0x0 /usr/local/CodeSourcery/bin/../lib/gcc/arm-none-eabi/4.5.2/../../../../arm-none-eabi/lib/thumb2/libc.a(lib_a-ctype_.o)
 .text          0x000321f4       0xc4 /usr/local/CodeSourcery/bin/../lib/gcc/arm-none-eabi/4.5.2/../../../../arm-none-eabi/lib/thumb2/libc.a(lib_a-fclose.o)
                0x000321f4                _fclose_r
                0x000322a8                fclose
 .text          0x000322b8      0x338 /usr/local/CodeSourcery/bin/../lib/gcc/arm-none-eabi/4.5.2/../../../../arm-none-eabi/lib/thumb2/libc.a(lib_a-fvwrite.o)
                0x000322b8                __sfvwrite_r
 .text          0x000325f0      0x680 /usr/local/CodeSourcery/bin/../lib/gcc/arm-none-eabi/4.5.2/../../../../arm-none-eabi/lib/thumb2/libc.a(lib_a-gdtoa-gethex.o)
                0x00032688                __hexdig_init
                0x000326e0                __gethex
 .text          0x00032c70      0x1cc /usr/local/CodeSourcery/bin/../lib/gcc/arm-none-eabi/4.5.2/../../../../arm-none-eabi/lib/thumb2/libc.a(lib_a-gdtoa-hexnan.o)
                0x00032c70                __hexnan
 .text          0x00032e3c       0xa0 /usr/local/CodeSourcery/bin/../lib/gcc/arm-none-eabi/4.5.2/../../../../arm-none-eabi/lib/thumb2/libc.a(lib_a-locale.o)
                0x00032e3c                _setlocale_r
                0x00032e98                __locale_charset
                0x00032ea4                __locale_mb_cur_max
                0x00032eb0                __locale_msgcharset
                0x00032eb8                __locale_cjk_lang
                0x00032ebc                _localeconv_r
                0x00032ec4                setlocale
                0x00032ed4                localeconv
 .text          0x00032edc       0x2c /usr/local/CodeSourcery/bin/../lib/gcc/arm-none-eabi/4.5.2/../../../../arm-none-eabi/lib/thumb2/libc.a(lib_a-lseekr.o)
                0x00032edc                _lseek_r
 .text          0x00032f08       0x8c /usr/local/CodeSourcery/bin/../lib/gcc/arm-none-eabi/4.5.2/../../../../arm-none-eabi/lib/thumb2/libc.a(lib_a-memchr.o)
                0x00032f08                memchr
 .text          0x00032f94       0xb4 /usr/local/CodeSourcery/bin/../lib/gcc/arm-none-eabi/4.5.2/../../../../arm-none-eabi/lib/thumb2/libc.a(lib_a-memmove.o)
                0x00032f94                memmove
 .text          0x00033048      0x91c /usr/local/CodeSourcery/bin/../lib/gcc/arm-none-eabi/4.5.2/../../../../arm-none-eabi/lib/thumb2/libc.a(lib_a-mprec.o)
                0x00033048                _Balloc
                0x000330b0                _Bfree
                0x000330e8                __multadd
                0x0003316c                __s2b
                0x00033204                __hi0bits
                0x00033244                __lo0bits
                0x000332a8                __i2b
                0x000332bc                __multiply
                0x000333e4                __pow5mult
                0x00033488                __lshift
                0x00033534                __mcmp
                0x00033570                __mdiff
                0x00033668                __ulp
                0x000336b0                __b2d
                0x0003375c                __d2b
                0x00033824                __ratio
                0x0003388c                _mprec_log10
                0x000338c0                __copybits
                0x00033908                __any_on
 .text          0x00033964      0x138 /usr/local/CodeSourcery/bin/../lib/gcc/arm-none-eabi/4.5.2/../../../../arm-none-eabi/lib/thumb2/libc.a(lib_a-putc.o)
                0x00033964                _putc_r
                0x000339f4                putc
 .text          0x00033a9c       0x2c /usr/local/CodeSourcery/bin/../lib/gcc/arm-none-eabi/4.5.2/../../../../arm-none-eabi/lib/thumb2/libc.a(lib_a-readr.o)
                0x00033a9c                _read_r
 .text          0x00033ac8       0xac /usr/local/CodeSourcery/bin/../lib/gcc/arm-none-eabi/4.5.2/../../../../arm-none-eabi/lib/thumb2/libc.a(lib_a-strncmp.o)
                0x00033ac8                strncmp
 .text          0x00033b74     0x1640 /usr/local/CodeSourcery/bin/../lib/gcc/arm-none-eabi/4.5.2/../../../../arm-none-eabi/lib/thumb2/libc.a(lib_a-svfprintf.o)
                0x00033b74                _svfprintf_r
 .text          0x000351b4       0xfc /usr/local/CodeSourcery/bin/../lib/gcc/arm-none-eabi/4.5.2/../../../../arm-none-eabi/lib/thumb2/libc.a(lib_a-wbuf.o)
                0x000351b4                __swbuf_r
                0x000352a0                __swbuf
 .text          0x000352b0      0x104 /usr/local/CodeSourcery/bin/../lib/gcc/arm-none-eabi/4.5.2/../../../../arm-none-eabi/lib/thumb2/libc.a(lib_a-wsetup.o)
                0x000352b0                __swsetup_r
 *fill*         0x000353b4        0x4 00
 .text          0x000353b8      0xfe8 /usr/local/CodeSourcery/bin/../lib/gcc/arm-none-eabi/4.5.2/../../../../arm-none-eabi/lib/thumb2/libc.a(lib_a-dtoa.o)
                0x000354e4                _dtoa_r
 .text          0x000363a0       0xec /usr/local/CodeSourcery/bin/../lib/gcc/arm-none-eabi/4.5.2/../../../../arm-none-eabi/lib/thumb2/libc.a(lib_a-makebuf.o)
                0x000363a0                __smakebuf_r
 .text          0x0003648c       0x90 /usr/local/CodeSourcery/bin/../lib/gcc/arm-none-eabi/4.5.2/../../../../arm-none-eabi/lib/thumb2/libc.a(lib_a-s_fpclassify.o)
                0x0003648c                __fpclassifyd
 .text          0x0003651c      0xbe8 /usr/local/CodeSourcery/bin/../lib/gcc/arm-none-eabi/4.5.2/../../../../arm-none-eabi/lib/thumb2/libc.a(lib_a-svfiprintf.o)
                0x0003651c                __ssprint_r
                0x00036624                _svfiprintf_r
 .text          0x00037104       0x2c /usr/local/CodeSourcery/bin/../lib/gcc/arm-none-eabi/4.5.2/../../../../arm-none-eabi/lib/thumb2/libc.a(lib_a-fstatr.o)
                0x00037104                _fstat_r
 .text          0x00037130       0x28 /usr/local/CodeSourcery/bin/../lib/gcc/arm-none-eabi/4.5.2/../../../../arm-none-eabi/lib/thumb2/libc.a(lib_a-isattyr.o)
                0x00037130                _isatty_r
 .text          0x00037158      0x278 /usr/local/CodeSourcery/bin/../lib/gcc/arm-none-eabi/4.5.2/thumb2/libgcc.a(_udivsi3.o)
                0x00037158                __udivsi3
                0x00037158                __aeabi_uidiv
                0x000373b4                __aeabi_uidivmod
 .text          0x000373d0        0x4 /usr/local/CodeSourcery/bin/../lib/gcc/arm-none-eabi/4.5.2/thumb2/libgcc.a(_dvmd_tls.o)
                0x000373d0                __aeabi_ldiv0
                0x000373d0                __aeabi_idiv0
 .text          0x000373d4       0x50 /usr/local/CodeSourcery/bin/../lib/gcc/arm-none-eabi/4.5.2/thumb2/libgcc.a(_arm_fixdfsi.o)
                0x000373d4                __fixdfsi
                0x000373d4                __aeabi_d2iz
 .text          0x00037424       0x2c /usr/local/CodeSourcery/bin/../lib/gcc/arm-none-eabi/4.5.2/thumb2/libgcc.a(_aeabi_uldivmod.o)
                0x00037424                __aeabi_uldivmod
 .text          0x00037450       0x60 /usr/local/CodeSourcery/bin/../lib/gcc/arm-none-eabi/4.5.2/thumb2/libgcc.a(bpabi.o)
                0x00037450                __gnu_ldivmod_helper
                0x00037480                __gnu_uldivmod_helper
 .text          0x000374b0      0x360 /usr/local/CodeSourcery/bin/../lib/gcc/arm-none-eabi/4.5.2/thumb2/libgcc.a(_divdi3.o)
                0x000374b0                __divdi3
 .text          0x00037810      0x308 /usr/local/CodeSourcery/bin/../lib/gcc/arm-none-eabi/4.5.2/thumb2/libgcc.a(_udivdi3.o)
                0x00037810                __udivdi3
 *(.rodata .rodata.* .gnu.linkonce.r.*)
 .rodata        0x00037b18      0x464 Debug/main.o
 .rodata        0x00037f7c       0xe4 Debug/lcd.o
 .rodata.AsciiLib
                0x00038060      0x5f0 Debug/lcd.o
 .rodata        0x00038650        0x8 Debug/printf-stdarg.o
 .rodata        0x00038658       0x20 Debug/touch.o
 .rodata        0x00038678       0xb0 Debug/serial.o
 .rodata        0x00038728        0x8 Debug/leds.o
 .rodata        0x00038730      0x328 Debug/hlt.o
 .rodata        0x00038a58       0x74 Debug/mash_pump.o
 .rodata        0x00038acc       0x60 Debug/mill.o
 .rodata        0x00038b2c      0x1b8 Debug/boil.o
 .rodata        0x00038ce4       0xb8 Debug/hop_dropper.o
 .rodata        0x00038d9c       0x64 Debug/stirApplet.o
 .rodata        0x00038e00       0x1c Debug/menu.o
 .rodata        0x00038e1c       0xc8 Debug/valves.o
 .rodata        0x00038ee4       0x64 Debug/diag_temps.o
 .rodata        0x00038f48      0x238 Debug/crane.o
 .rodata        0x00039180      0x1bc Debug/ds1820.o
 .rodata.fBoilLitresPerPulseL
                0x0003933c        0x4 Debug/Flow1.o
                0x0003933c                fBoilLitresPerPulseL
 .rodata.fMashLitresPerPulseL
                0x00039340        0x4 Debug/Flow1.o
                0x00039340                fMashLitresPerPulseL
 .rodata.fBoilLitresPerPulseH
                0x00039344        0x4 Debug/Flow1.o
                0x00039344                fBoilLitresPerPulseH
 .rodata.fMashLitresPerPulseH
                0x00039348        0x4 Debug/Flow1.o
                0x00039348                fMashLitresPerPulseH
 .rodata.ulLowerThresh
                0x0003934c        0x4 Debug/Flow1.o
                0x0003934c                ulLowerThresh
 .rodata.ulUpperThresh
                0x00039350        0x4 Debug/Flow1.o
                0x00039350                ulUpperThresh
 .rodata        0x00039354       0x84 Debug/Flow1.o
 .rodata        0x000393d8       0xb4 Debug/diag_pwm.o
 *fill*         0x0003948c        0x4 00
 .rodata.lfClock
                0x00039490        0x8 Debug/diag_pwm.o
                0x00039490                lfClock
 .rodata        0x00039498      0x154 Debug/I2C-IO.o
 .rodata        0x000395ec       0xac Debug/chiller_pump.o
 .rodata        0x00039698       0x18 Debug/console.o
 .rodata.STEP_COMPLETE
                0x000396b0        0x4 Debug/brew.o
                0x000396b0                STEP_COMPLETE
 .rodata.STEP_FAILED
                0x000396b4        0x4 Debug/brew.o
                0x000396b4                STEP_FAILED
 .rodata.STEP_WAIT
                0x000396b8        0x4 Debug/brew.o
                0x000396b8                STEP_WAIT
 .rodata        0x000396bc      0xbe4 Debug/brew.o
 .rodata        0x0003a2a0      0x1ec Debug/parameters.o
 .rodata        0x0003a48c      0x1bc Debug/boil_valve.o
 .rodata        0x0003a648       0x34 Debug/stf_syscalls_minimal.o
 .rodata.heapSTRUCT_SIZE
                0x0003a67c        0x2 Debug/stf_syscalls_minimal.o
 *fill*         0x0003a67e        0x2 00
 .rodata.AHBPrescTable
                0x0003a680       0x10 Debug/system_stm32f10x.o
                0x0003a680                AHBPrescTable
 .rodata        0x0003a690       0x28 Debug/stm32f10x_i2c.o
 .rodata        0x0003a6b8       0x20 Debug/misc.o
 .rodata        0x0003a6d8       0x28 Debug/stm32f10x_rcc.o
 .rodata        0x0003a700       0x28 Debug/stm32f10x_gpio.o
 .rodata        0x0003a728       0x28 Debug/stm32f10x_spi.o
 .rodata        0x0003a750       0x28 Debug/stm32f10x_tim.o
 .rodata        0x0003a778       0x2c Debug/stm32f10x_usart.o
 .rodata        0x0003a7a4       0x28 Debug/stm32f10x_fsmc.o
 .rodata        0x0003a7cc       0x2c Debug/stm32f10x_flash.o
 .rodata        0x0003a7f8       0x28 Debug/stm32f10x_adc.o
 .rodata        0x0003a820       0x28 Debug/stm32f10x_exti.o
 .rodata        0x0003a848       0x20 Debug/tasks.o
 .rodata.ucExpectedStackBytes.5755
                0x0003a868       0x14 Debug/tasks.o
 .rodata.ulKernelPriority
                0x0003a87c        0x4 Debug/port.o
                0x0003a87c                ulKernelPriority
 .rodata.heapSTRUCT_SIZE
                0x0003a880        0x2 Debug/heap_2.o
 *fill*         0x0003a882        0x2 00
 .rodata        0x0003a884       0x60 /usr/local/CodeSourcery/bin/../lib/gcc/arm-none-eabi/4.5.2/../../../../arm-none-eabi/lib/thumb2/libc.a(lib_a-findfp.o)
                0x0003a884                __sf_fake_stdin
                0x0003a8a4                __sf_fake_stdout
                0x0003a8c4                __sf_fake_stderr
 .rodata        0x0003a8e4        0x4 /usr/local/CodeSourcery/bin/../lib/gcc/arm-none-eabi/4.5.2/../../../../arm-none-eabi/lib/thumb2/libc.a(lib_a-impure.o)
                0x0003a8e4                _global_impure_ptr
 .rodata.str1.4
                0x0003a8e8        0x2 /usr/local/CodeSourcery/bin/../lib/gcc/arm-none-eabi/4.5.2/../../../../arm-none-eabi/lib/thumb2/libc.a(lib_a-impure.o)
                                  0x4 (size before relaxing)
 *fill*         0x0003a8ea        0x2 00
 .rodata.str1.4
                0x0003a8ec        0x2 /usr/local/CodeSourcery/bin/../lib/gcc/arm-none-eabi/4.5.2/../../../../arm-none-eabi/lib/thumb2/libc.a(lib_a-puts.o)
                                  0x4 (size before relaxing)
 *fill*         0x0003a8ee        0x2 00
 .rodata        0x0003a8f0       0x28 /usr/local/CodeSourcery/bin/../lib/gcc/arm-none-eabi/4.5.2/../../../../arm-none-eabi/lib/thumb2/libc.a(lib_a-strtod.o)
 .rodata.str1.4
                0x0003a918        0xf /usr/local/CodeSourcery/bin/../lib/gcc/arm-none-eabi/4.5.2/../../../../arm-none-eabi/lib/thumb2/libc.a(lib_a-strtod.o)
                                 0x10 (size before relaxing)
 *fill*         0x0003a927        0x1 00
 .rodata        0x0003a928      0x104 /usr/local/CodeSourcery/bin/../lib/gcc/arm-none-eabi/4.5.2/../../../../arm-none-eabi/lib/thumb2/libc.a(lib_a-ctype_.o)
                0x0003a928                _ctype_
 .rodata.str1.4
                0x0003aa2c       0x1b /usr/local/CodeSourcery/bin/../lib/gcc/arm-none-eabi/4.5.2/../../../../arm-none-eabi/lib/thumb2/libc.a(lib_a-gdtoa-gethex.o)
                                 0x1c (size before relaxing)
 *fill*         0x0003aa47        0x1 00
 .rodata.str1.4
                0x0003aa48        0xa /usr/local/CodeSourcery/bin/../lib/gcc/arm-none-eabi/4.5.2/../../../../arm-none-eabi/lib/thumb2/libc.a(lib_a-locale.o)
                                 0x14 (size before relaxing)
 *fill*         0x0003aa52        0x6 00
 .rodata        0x0003aa58      0x128 /usr/local/CodeSourcery/bin/../lib/gcc/arm-none-eabi/4.5.2/../../../../arm-none-eabi/lib/thumb2/libc.a(lib_a-mprec.o)
                0x0003aa68                __mprec_tens
                0x0003ab30                __mprec_bigtens
                0x0003ab58                __mprec_tinytens
 .rodata        0x0003ab80       0x20 /usr/local/CodeSourcery/bin/../lib/gcc/arm-none-eabi/4.5.2/../../../../arm-none-eabi/lib/thumb2/libc.a(lib_a-svfprintf.o)
 .rodata.str1.4
                0x0003aba0       0x42 /usr/local/CodeSourcery/bin/../lib/gcc/arm-none-eabi/4.5.2/../../../../arm-none-eabi/lib/thumb2/libc.a(lib_a-svfprintf.o)
                                 0x44 (size before relaxing)
 *fill*         0x0003abe2        0x2 00
 .rodata.str1.4
                0x0003abe4       0x10 /usr/local/CodeSourcery/bin/../lib/gcc/arm-none-eabi/4.5.2/../../../../arm-none-eabi/lib/thumb2/libc.a(lib_a-dtoa.o)
                                 0x14 (size before relaxing)
 .rodata        0x0003abf4       0x20 /usr/local/CodeSourcery/bin/../lib/gcc/arm-none-eabi/4.5.2/../../../../arm-none-eabi/lib/thumb2/libc.a(lib_a-svfiprintf.o)
 .rodata.str1.4
                0x00000000       0x30 /usr/local/CodeSourcery/bin/../lib/gcc/arm-none-eabi/4.5.2/../../../../arm-none-eabi/lib/thumb2/libc.a(lib_a-svfiprintf.o)
 *(.eh_frame_hdr)
 *(.eh_frame)
 *(.ARM.extab* .gnu.linkonce.armextab.*)
 .ARM.extab     0x0003ac14        0x0 /usr/local/CodeSourcery/bin/../lib/gcc/arm-none-eabi/4.5.2/thumb2/libgcc.a(_divdi3.o)
 .ARM.extab     0x0003ac14        0x0 /usr/local/CodeSourcery/bin/../lib/gcc/arm-none-eabi/4.5.2/thumb2/libgcc.a(_udivdi3.o)
 *(.gcc_except_table)
 *(.eh_frame_hdr)
 *(.eh_frame)
                0x0003ac14                . = ALIGN (0x4)
 *(.init)
                0x0003ac14                . = ALIGN (0x4)
                0x0003ac14                __preinit_array_start = .
 *(.preinit_array)
                0x0003ac14                __preinit_array_end = .
                0x0003ac14                . = ALIGN (0x4)
                0x0003ac14                __init_array_start = .
 *(SORT(.init_array.*))
 *(.init_array)
                0x0003ac14                __init_array_end = .
                0x0003ac14                . = ALIGN (0x4)
 *crtbegin.o(.ctors)
 *(EXCLUDE_FILE(*crtend.o) .ctors)
 *(SORT(.ctors.*))
 *crtend.o(.ctors)
                0x0003ac14                . = ALIGN (0x4)
 *(.fini)
                0x0003ac14                . = ALIGN (0x4)
                0x0003ac14                __fini_array_start = .
 *(.fini_array)
 *(SORT(.fini_array.*))
                0x0003ac14                __fini_array_end = .
 *crtbegin.o(.dtors)
 *(EXCLUDE_FILE(*crtend.o) .dtors)
 *(SORT(.dtors.*))
 *crtend.o(.dtors)
                0x0003ac18                . = ALIGN (0x8)
 *fill*         0x0003ac14        0x4 00
                0x0003ac18                _etext = .
                0x0003ac18                __exidx_start = .

.glue_7         0x0003ac18        0x0
 .glue_7        0x00000000        0x0 linker stubs

.glue_7t        0x0003ac18        0x0
 .glue_7t       0x00000000        0x0 linker stubs

.vfp11_veneer   0x0003ac18        0x0
 .vfp11_veneer  0x00000000        0x0 linker stubs

.v4_bx          0x0003ac18        0x0
 .v4_bx         0x00000000        0x0 linker stubs

.ARM.exidx      0x0003ac18        0x8
 *(.ARM.exidx* .gnu.linkonce.armexidx.*)
 .ARM.exidx     0x0003ac18        0x8 /usr/local/CodeSourcery/bin/../lib/gcc/arm-none-eabi/4.5.2/thumb2/libgcc.a(_divdi3.o)
 .ARM.exidx     0x0003ac20        0x0 /usr/local/CodeSourcery/bin/../lib/gcc/arm-none-eabi/4.5.2/thumb2/libgcc.a(_udivdi3.o)
                                  0x8 (size before relaxing)
                0x0003ac20                __exidx_end = .
                0x0003ac20                _flash_data = .

.data           0x20000000      0xa28 load address 0x0003ac20
                0x20000000                _data = .
 *(vtable)
 *(.data*)
 .data          0x20000000        0x0 Debug/main.o
 .data.diag_menu
                0x20000000       0x8c Debug/main.o
                0x20000000                diag_menu
 .data.manual_menu
                0x2000008c       0xa0 Debug/main.o
                0x2000008c                manual_menu
 .data.pumps_valves
                0x2000012c       0x78 Debug/main.o
                0x2000012c                pumps_valves
 .data.main_menu
                0x200001a4       0x78 Debug/main.o
                0x200001a4                main_menu
 .data          0x2000021c        0x0 Debug/lcd.o
 .data.i.6918   0x2000021c        0x4 Debug/lcd.o
 .data          0x20000220        0x0 Debug/printf-stdarg.o
 .data          0x20000220        0x0 Debug/touch.o
 .data          0x20000220        0x0 Debug/serial.o
 .data.result   0x20000220        0x4 Debug/serial.o
 .data          0x20000224        0x0 Debug/adc.o
 .data          0x20000224        0x0 Debug/leds.o
 .data          0x20000224        0x0 Debug/buffer.o
 .data          0x20000224        0x0 Debug/hlt.o
 .data.diag_setpoint
                0x20000224        0x4 Debug/hlt.o
                0x20000224                diag_setpoint
 .data.HLT_LEVELS
                0x20000228        0xc Debug/hlt.o
                0x20000228                HLT_LEVELS
 .data.h.7979   0x20000234        0x1 Debug/hlt.o
 .data.w.7978   0x20000235        0x1 Debug/hlt.o
 .data.uRcvdState.7911
                0x20000236        0x1 Debug/hlt.o
 .data          0x20000237        0x0 Debug/mash_pump.o
 *fill*         0x20000237        0x1 00
 .data.uMashPumpState
                0x20000238        0x4 Debug/mash_pump.o
                0x20000238                uMashPumpState
 .data.h.6866   0x2000023c        0x1 Debug/mash_pump.o
 .data.w.6865   0x2000023d        0x1 Debug/mash_pump.o
 .data          0x2000023e        0x0 Debug/mill.o
 .data.h.6870   0x2000023e        0x1 Debug/mill.o
 .data.w.6869   0x2000023f        0x1 Debug/mill.o
 .data          0x20000240        0x0 Debug/boil.o
 .data.diag_duty
                0x20000240        0x4 Debug/boil.o
                0x20000240                diag_duty
 .data.h.7347   0x20000244        0x1 Debug/boil.o
 .data.w.7346   0x20000245        0x1 Debug/boil.o
 .data          0x20000246        0x0 Debug/hop_dropper.o
 .data.h.7314   0x20000246        0x1 Debug/hop_dropper.o
 .data.w.7313   0x20000247        0x1 Debug/hop_dropper.o
 .data          0x20000248        0x0 Debug/stir.o
 .data          0x20000248        0x0 Debug/stirApplet.o
 .data.h.6852   0x20000248        0x1 Debug/stirApplet.o
 .data.w.6851   0x20000249        0x1 Debug/stirApplet.o
 .data          0x2000024a        0x0 Debug/menu.o
 *fill*         0x2000024a        0x2 00
 .data.g_item   0x2000024c        0x4 Debug/menu.o
 .data.g_command_item
                0x20000250        0x4 Debug/menu.o
 .data          0x20000254        0x0 Debug/valves.o
 .data.h.7454   0x20000254        0x1 Debug/valves.o
 .data.w.7453   0x20000255        0x1 Debug/valves.o
 .data          0x20000256        0x0 Debug/diag_temps.o
 .data          0x20000256        0x0 Debug/crane.o
 .data.cs       0x20000256        0x1 Debug/crane.o
                0x20000256                cs
 .data.iCraneState
                0x20000257        0x1 Debug/crane.o
                0x20000257                iCraneState
 .data.iUp      0x20000258        0x4 Debug/crane.o
                0x20000258                iUp
 .data.iDn      0x2000025c        0x4 Debug/crane.o
                0x2000025c                iDn
 .data.iStop    0x20000260        0x4 Debug/crane.o
                0x20000260                iStop
 .data.h.7395   0x20000264        0x1 Debug/crane.o
 .data.w.7394   0x20000265        0x1 Debug/crane.o
 *fill*         0x20000266        0x2 00
 .data.iC.7358  0x20000268        0x4 Debug/crane.o
 .data          0x2000026c        0x0 Debug/speaker.o
 .data          0x2000026c        0x0 Debug/timer.o
 .data          0x2000026c        0x0 Debug/ds1820.o
 .data          0x2000026c        0x0 Debug/Flow1.o
 .data.h.7921   0x2000026c        0x1 Debug/Flow1.o
 .data.w.7920   0x2000026d        0x1 Debug/Flow1.o
 .data          0x2000026e        0x0 Debug/diag_pwm.o
 *fill*         0x2000026e        0x2 00
 .data.uARR     0x20000270        0x4 Debug/diag_pwm.o
                0x20000270                uARR
 .data.uPrescaler
                0x20000274        0x4 Debug/diag_pwm.o
                0x20000274                uPrescaler
 .data.uPulse   0x20000278        0x4 Debug/diag_pwm.o
                0x20000278                uPulse
 .data          0x2000027c        0x0 Debug/I2C-IO.o
 .data.first.6952
                0x2000027c        0x4 Debug/I2C-IO.o
 .data          0x20000280        0x0 Debug/chiller_pump.o
 .data.uChillerPumpState
                0x20000280        0x4 Debug/chiller_pump.o
                0x20000280                uChillerPumpState
 .data.h.6886   0x20000284        0x1 Debug/chiller_pump.o
 .data.w.6885   0x20000285        0x1 Debug/chiller_pump.o
 .data          0x20000286        0x0 Debug/console.o
 *fill*         0x20000286        0x2 00
 .data.pcX      0x20000288        0x4 Debug/console.o
                0x20000288                pcX
 .data          0x2000028c        0x0 Debug/brew.o
 .data.pcRunningState
                0x2000028c        0x8 Debug/brew.o
                0x2000028c                pcRunningState
 .data.pcHLTLevels
                0x20000294        0xc Debug/brew.o
                0x20000294                pcHLTLevels
 .data.pcHLTStates
                0x200002a0       0x10 Debug/brew.o
                0x200002a0                pcHLTStates
 .data.pcCraneStates
                0x200002b0       0x18 Debug/brew.o
                0x200002b0                pcCraneStates
 .data.pcTASKS  0x200002c8       0x18 Debug/brew.o
                0x200002c8                pcTASKS
 .data.pcBrewMessages
                0x200002e0        0xc Debug/brew.o
                0x200002e0                pcBrewMessages
 .data.iStirState
                0x200002ec        0x4 Debug/brew.o
 .data.iPumpState
                0x200002f0        0x4 Debug/brew.o
 .data.Brew     0x200002f4      0x478 Debug/brew.o
 .data.h.7899   0x2000076c        0x1 Debug/brew.o
 .data.w.7898   0x2000076d        0x1 Debug/brew.o
 .data.ucLastStep.7880
                0x2000076e        0x1 Debug/brew.o
 .data.ucLastState.7881
                0x2000076f        0x1 Debug/brew.o
 .data.ucLastHLTLevel.7882
                0x20000770        0x1 Debug/brew.o
 .data          0x20000771        0x0 Debug/parameters.o
 *fill*         0x20000771        0x3 00
 .data.UserParametersList
                0x20000774       0xe4 Debug/parameters.o
                0x20000774                UserParametersList
 .data.h.7823   0x20000858        0x1 Debug/parameters.o
 .data.w.7822   0x20000859        0x1 Debug/parameters.o
 .data          0x2000085a        0x0 Debug/boil_valve.o
 *fill*         0x2000085a        0x2 00
 .data.iBoilValveState
                0x2000085c        0x4 Debug/boil_valve.o
                0x2000085c                iBoilValveState
 .data.h.7911   0x20000860        0x1 Debug/boil_valve.o
 .data.w.7910   0x20000861        0x1 Debug/boil_valve.o
 *fill*         0x20000862        0x2 00
 .data.iC.7876  0x20000864        0x4 Debug/boil_valve.o
 .data          0x20000868        0x0 Debug/stf_syscalls_minimal.o
 .data.__environ
                0x20000868        0x4 Debug/stf_syscalls_minimal.o
                0x20000868                __environ
 .data          0x2000086c        0x0 Debug/io_util.o
 .data          0x2000086c        0x0 Debug/core_cm3.o
 .data          0x2000086c        0x0 Debug/system_stm32f10x.o
 .data.SystemCoreClock
                0x2000086c        0x4 Debug/system_stm32f10x.o
                0x2000086c                SystemCoreClock
 .data          0x20000870        0x0 Debug/stm32f10x_it.o
 .data          0x20000870        0x0 Debug/stm32f10x_i2c.o
 .data          0x20000870        0x0 Debug/misc.o
 .data          0x20000870        0x0 Debug/stm32f10x_rcc.o
 .data.APBAHBPrescTable
                0x20000870       0x10 Debug/stm32f10x_rcc.o
 .data.ADCPrescTable
                0x20000880        0x4 Debug/stm32f10x_rcc.o
 .data          0x20000884        0x0 Debug/stm32f10x_gpio.o
 .data          0x20000884        0x0 Debug/stm32f10x_spi.o
 .data          0x20000884        0x0 Debug/stm32f10x_tim.o
 .data          0x20000884        0x0 Debug/stm32f10x_usart.o
 .data          0x20000884        0x0 Debug/stm32f10x_fsmc.o
 .data          0x20000884        0x0 Debug/stm32f10x_flash.o
 .data          0x20000884        0x0 Debug/stm32f10x_adc.o
 .data          0x20000884        0x0 Debug/stm32f10x_exti.o
 .data          0x20000884        0x0 Debug/list.o
 .data          0x20000884        0x0 Debug/queue.o
 .data          0x20000884        0x0 Debug/tasks.o
 .data.uxPreviousTask
                0x20000884        0x4 Debug/tasks.o
 .data          0x20000888        0x0 Debug/port.o
 .data.uxCriticalNesting
                0x20000888        0x4 Debug/port.o
 .data          0x2000088c        0x0 Debug/heap_2.o
 .data          0x2000088c        0x0 Debug/startup_stm32f10x.o
 .data          0x2000088c        0x0 /usr/local/CodeSourcery/bin/../lib/gcc/arm-none-eabi/4.5.2/../../../../arm-none-eabi/lib/thumb2/libm.a(lib_a-s_floor.o)
 .data          0x2000088c        0x0 /usr/local/CodeSourcery/bin/../lib/gcc/arm-none-eabi/4.5.2/thumb2/libgcc.a(_arm_addsubdf3.o)
 .data          0x2000088c        0x0 /usr/local/CodeSourcery/bin/../lib/gcc/arm-none-eabi/4.5.2/thumb2/libgcc.a(_arm_muldivdf3.o)
 .data          0x2000088c        0x0 /usr/local/CodeSourcery/bin/../lib/gcc/arm-none-eabi/4.5.2/thumb2/libgcc.a(_arm_cmpdf2.o)
 .data          0x2000088c        0x0 /usr/local/CodeSourcery/bin/../lib/gcc/arm-none-eabi/4.5.2/thumb2/libgcc.a(_arm_fixunsdfsi.o)
 .data          0x2000088c        0x0 /usr/local/CodeSourcery/bin/../lib/gcc/arm-none-eabi/4.5.2/thumb2/libgcc.a(_arm_truncdfsf2.o)
 .data          0x2000088c        0x0 /usr/local/CodeSourcery/bin/../lib/gcc/arm-none-eabi/4.5.2/thumb2/libgcc.a(_arm_addsubsf3.o)
 .data          0x2000088c        0x0 /usr/local/CodeSourcery/bin/../lib/gcc/arm-none-eabi/4.5.2/thumb2/libgcc.a(_arm_muldivsf3.o)
 .data          0x2000088c        0x0 /usr/local/CodeSourcery/bin/../lib/gcc/arm-none-eabi/4.5.2/thumb2/libgcc.a(_arm_cmpsf2.o)
 .data          0x2000088c        0x0 /usr/local/CodeSourcery/bin/../lib/gcc/arm-none-eabi/4.5.2/thumb2/libgcc.a(_arm_fixsfsi.o)
 .data          0x2000088c        0x0 /usr/local/CodeSourcery/bin/../lib/gcc/arm-none-eabi/4.5.2/../../../../arm-none-eabi/lib/thumb2/libc.a(lib_a-atof.o)
 .data          0x2000088c        0x0 /usr/local/CodeSourcery/bin/../lib/gcc/arm-none-eabi/4.5.2/../../../../arm-none-eabi/lib/thumb2/libc.a(lib_a-atoi.o)
 .data          0x2000088c        0x0 /usr/local/CodeSourcery/bin/../lib/gcc/arm-none-eabi/4.5.2/../../../../arm-none-eabi/lib/thumb2/libc.a(lib_a-fflush.o)
 .data          0x2000088c        0x0 /usr/local/CodeSourcery/bin/../lib/gcc/arm-none-eabi/4.5.2/../../../../arm-none-eabi/lib/thumb2/libc.a(lib_a-findfp.o)
 .data          0x2000088c        0x0 /usr/local/CodeSourcery/bin/../lib/gcc/arm-none-eabi/4.5.2/../../../../arm-none-eabi/lib/thumb2/libc.a(lib_a-fwalk.o)
 .data          0x2000088c       0xf4 /usr/local/CodeSourcery/bin/../lib/gcc/arm-none-eabi/4.5.2/../../../../arm-none-eabi/lib/thumb2/libc.a(lib_a-impure.o)
                0x2000088c                _impure_ptr
 .data          0x20000980        0x0 /usr/local/CodeSourcery/bin/../lib/gcc/arm-none-eabi/4.5.2/../../../../arm-none-eabi/lib/thumb2/libc.a(lib_a-malloc.o)
 .data          0x20000980        0x0 /usr/local/CodeSourcery/bin/../lib/gcc/arm-none-eabi/4.5.2/../../../../arm-none-eabi/lib/thumb2/libc.a(lib_a-memcmp.o)
 .data          0x20000980        0x0 /usr/local/CodeSourcery/bin/../lib/gcc/arm-none-eabi/4.5.2/../../../../arm-none-eabi/lib/thumb2/libc.a(lib_a-memcpy.o)
 .data          0x20000980        0x0 /usr/local/CodeSourcery/bin/../lib/gcc/arm-none-eabi/4.5.2/../../../../arm-none-eabi/lib/thumb2/libc.a(lib_a-memset.o)
 .data          0x20000980        0x0 /usr/local/CodeSourcery/bin/../lib/gcc/arm-none-eabi/4.5.2/../../../../arm-none-eabi/lib/thumb2/libc.a(lib_a-putchar.o)
 .data          0x20000980        0x0 /usr/local/CodeSourcery/bin/../lib/gcc/arm-none-eabi/4.5.2/../../../../arm-none-eabi/lib/thumb2/libc.a(lib_a-puts.o)
 .data          0x20000980        0x0 /usr/local/CodeSourcery/bin/../lib/gcc/arm-none-eabi/4.5.2/../../../../arm-none-eabi/lib/thumb2/libc.a(lib_a-reent.o)
 .data          0x20000980        0x0 /usr/local/CodeSourcery/bin/../lib/gcc/arm-none-eabi/4.5.2/../../../../arm-none-eabi/lib/thumb2/libc.a(lib_a-stdio.o)
 .data          0x20000980        0x0 /usr/local/CodeSourcery/bin/../lib/gcc/arm-none-eabi/4.5.2/../../../../arm-none-eabi/lib/thumb2/libc.a(lib_a-strcat.o)
 .data          0x20000980        0x0 /usr/local/CodeSourcery/bin/../lib/gcc/arm-none-eabi/4.5.2/../../../../arm-none-eabi/lib/thumb2/libc.a(lib_a-strcmp.o)
 .data          0x20000980        0x0 /usr/local/CodeSourcery/bin/../lib/gcc/arm-none-eabi/4.5.2/../../../../arm-none-eabi/lib/thumb2/libc.a(lib_a-strcpy.o)
 .data          0x20000980        0x0 /usr/local/CodeSourcery/bin/../lib/gcc/arm-none-eabi/4.5.2/../../../../arm-none-eabi/lib/thumb2/libc.a(lib_a-strlen.o)
 .data          0x20000980        0x0 /usr/local/CodeSourcery/bin/../lib/gcc/arm-none-eabi/4.5.2/../../../../arm-none-eabi/lib/thumb2/libc.a(lib_a-strncpy.o)
 .data          0x20000980       0x28 /usr/local/CodeSourcery/bin/../lib/gcc/arm-none-eabi/4.5.2/../../../../arm-none-eabi/lib/thumb2/libc.a(lib_a-strtod.o)
 .data          0x200009a8        0x0 /usr/local/CodeSourcery/bin/../lib/gcc/arm-none-eabi/4.5.2/../../../../arm-none-eabi/lib/thumb2/libc.a(lib_a-strtol.o)
 .data          0x200009a8        0x0 /usr/local/CodeSourcery/bin/../lib/gcc/arm-none-eabi/4.5.2/../../../../arm-none-eabi/lib/thumb2/libc.a(lib_a-vsnprintf.o)
 .data          0x200009a8        0x0 /usr/local/CodeSourcery/bin/../lib/gcc/arm-none-eabi/4.5.2/../../../../arm-none-eabi/lib/thumb2/libc.a(lib_a-writer.o)
 .data          0x200009a8        0x0 /usr/local/CodeSourcery/bin/../lib/gcc/arm-none-eabi/4.5.2/../../../../arm-none-eabi/lib/thumb2/libc.a(lib_a-closer.o)
 .data          0x200009a8        0x4 /usr/local/CodeSourcery/bin/../lib/gcc/arm-none-eabi/4.5.2/../../../../arm-none-eabi/lib/thumb2/libc.a(lib_a-ctype_.o)
                0x200009a8                __ctype_ptr__
 .data          0x200009ac        0x0 /usr/local/CodeSourcery/bin/../lib/gcc/arm-none-eabi/4.5.2/../../../../arm-none-eabi/lib/thumb2/libc.a(lib_a-fclose.o)
 .data          0x200009ac        0x0 /usr/local/CodeSourcery/bin/../lib/gcc/arm-none-eabi/4.5.2/../../../../arm-none-eabi/lib/thumb2/libc.a(lib_a-fvwrite.o)
 .data          0x200009ac        0x0 /usr/local/CodeSourcery/bin/../lib/gcc/arm-none-eabi/4.5.2/../../../../arm-none-eabi/lib/thumb2/libc.a(lib_a-gdtoa-gethex.o)
 .data          0x200009ac        0x0 /usr/local/CodeSourcery/bin/../lib/gcc/arm-none-eabi/4.5.2/../../../../arm-none-eabi/lib/thumb2/libc.a(lib_a-gdtoa-hexnan.o)
 .data          0x200009ac       0x7c /usr/local/CodeSourcery/bin/../lib/gcc/arm-none-eabi/4.5.2/../../../../arm-none-eabi/lib/thumb2/libc.a(lib_a-locale.o)
                0x200009cc                __mb_cur_max
 .data          0x20000a28        0x0 /usr/local/CodeSourcery/bin/../lib/gcc/arm-none-eabi/4.5.2/../../../../arm-none-eabi/lib/thumb2/libc.a(lib_a-lseekr.o)
 .data          0x20000a28        0x0 /usr/local/CodeSourcery/bin/../lib/gcc/arm-none-eabi/4.5.2/../../../../arm-none-eabi/lib/thumb2/libc.a(lib_a-memchr.o)
 .data          0x20000a28        0x0 /usr/local/CodeSourcery/bin/../lib/gcc/arm-none-eabi/4.5.2/../../../../arm-none-eabi/lib/thumb2/libc.a(lib_a-memmove.o)
 .data          0x20000a28        0x0 /usr/local/CodeSourcery/bin/../lib/gcc/arm-none-eabi/4.5.2/../../../../arm-none-eabi/lib/thumb2/libc.a(lib_a-mprec.o)
 .data          0x20000a28        0x0 /usr/local/CodeSourcery/bin/../lib/gcc/arm-none-eabi/4.5.2/../../../../arm-none-eabi/lib/thumb2/libc.a(lib_a-putc.o)
 .data          0x20000a28        0x0 /usr/local/CodeSourcery/bin/../lib/gcc/arm-none-eabi/4.5.2/../../../../arm-none-eabi/lib/thumb2/libc.a(lib_a-readr.o)
 .data          0x20000a28        0x0 /usr/local/CodeSourcery/bin/../lib/gcc/arm-none-eabi/4.5.2/../../../../arm-none-eabi/lib/thumb2/libc.a(lib_a-strncmp.o)
 .data          0x20000a28        0x0 /usr/local/CodeSourcery/bin/../lib/gcc/arm-none-eabi/4.5.2/../../../../arm-none-eabi/lib/thumb2/libc.a(lib_a-svfprintf.o)
 .data          0x20000a28        0x0 /usr/local/CodeSourcery/bin/../lib/gcc/arm-none-eabi/4.5.2/../../../../arm-none-eabi/lib/thumb2/libc.a(lib_a-wbuf.o)
 .data          0x20000a28        0x0 /usr/local/CodeSourcery/bin/../lib/gcc/arm-none-eabi/4.5.2/../../../../arm-none-eabi/lib/thumb2/libc.a(lib_a-wsetup.o)
 .data          0x20000a28        0x0 /usr/local/CodeSourcery/bin/../lib/gcc/arm-none-eabi/4.5.2/../../../../arm-none-eabi/lib/thumb2/libc.a(lib_a-dtoa.o)
 .data          0x20000a28        0x0 /usr/local/CodeSourcery/bin/../lib/gcc/arm-none-eabi/4.5.2/../../../../arm-none-eabi/lib/thumb2/libc.a(lib_a-makebuf.o)
 .data          0x20000a28        0x0 /usr/local/CodeSourcery/bin/../lib/gcc/arm-none-eabi/4.5.2/../../../../arm-none-eabi/lib/thumb2/libc.a(lib_a-s_fpclassify.o)
 .data          0x20000a28        0x0 /usr/local/CodeSourcery/bin/../lib/gcc/arm-none-eabi/4.5.2/../../../../arm-none-eabi/lib/thumb2/libc.a(lib_a-svfiprintf.o)
 .data          0x20000a28        0x0 /usr/local/CodeSourcery/bin/../lib/gcc/arm-none-eabi/4.5.2/../../../../arm-none-eabi/lib/thumb2/libc.a(lib_a-fstatr.o)
 .data          0x20000a28        0x0 /usr/local/CodeSourcery/bin/../lib/gcc/arm-none-eabi/4.5.2/../../../../arm-none-eabi/lib/thumb2/libc.a(lib_a-isattyr.o)
 .data          0x20000a28        0x0 /usr/local/CodeSourcery/bin/../lib/gcc/arm-none-eabi/4.5.2/thumb2/libgcc.a(_udivsi3.o)
 .data          0x20000a28        0x0 /usr/local/CodeSourcery/bin/../lib/gcc/arm-none-eabi/4.5.2/thumb2/libgcc.a(_dvmd_tls.o)
 .data          0x20000a28        0x0 /usr/local/CodeSourcery/bin/../lib/gcc/arm-none-eabi/4.5.2/thumb2/libgcc.a(_arm_fixdfsi.o)
 .data          0x20000a28        0x0 /usr/local/CodeSourcery/bin/../lib/gcc/arm-none-eabi/4.5.2/thumb2/libgcc.a(_aeabi_uldivmod.o)
 .data          0x20000a28        0x0 /usr/local/CodeSourcery/bin/../lib/gcc/arm-none-eabi/4.5.2/thumb2/libgcc.a(bpabi.o)
 .data          0x20000a28        0x0 /usr/local/CodeSourcery/bin/../lib/gcc/arm-none-eabi/4.5.2/thumb2/libgcc.a(_divdi3.o)
 .data          0x20000a28        0x0 /usr/local/CodeSourcery/bin/../lib/gcc/arm-none-eabi/4.5.2/thumb2/libgcc.a(_udivdi3.o)
                0x20000a28                _edata = .

.bss            0x20000a28     0xe8c4 load address 0x0003b648
                0x20000a28                _bss = .
 *(.bss*)
 .bss           0x20000a28        0x0 Debug/main.o
 .bss.ulIdleCycleCount
                0x20000a28        0x4 Debug/main.o
                0x20000a28                ulIdleCycleCount
 .bss.cBuf.8447
                0x20000a2c       0x50 Debug/main.o
 .bss           0x20000a7c        0x0 Debug/lcd.o
 .bss.deviceid  0x20000a7c        0x2 Debug/lcd.o
 .bss.bg_col    0x20000a7e        0x2 Debug/lcd.o
 .bss.lcdUsingTask
                0x20000a80        0x4 Debug/lcd.o
 .bss           0x20000a84        0x0 Debug/printf-stdarg.o
 .bss           0x20000a84        0x0 Debug/touch.o
 .bss           0x20000a84        0x0 Debug/serial.o
 .bss.g_usart   0x20000a84        0x4 Debug/serial.o
 .bss.brewStarted.7299
                0x20000a88        0x1 Debug/serial.o
 .bss           0x20000a89        0x0 Debug/adc.o
 .bss           0x20000a89        0x0 Debug/leds.o
 .bss           0x20000a89        0x0 Debug/buffer.o
 .bss           0x20000a89        0x0 Debug/hlt.o
 .bss.hlt_state
                0x20000a89        0x1 Debug/hlt.o
                0x20000a89                hlt_state
 *fill*         0x20000a8a        0x2 00
 .bss.xHeatHLTTaskHandle
                0x20000a8c        0x4 Debug/hlt.o
                0x20000a8c                xHeatHLTTaskHandle
 .bss.xHLTAppletDisplayHandle
                0x20000a90        0x4 Debug/hlt.o
                0x20000a90                xHLTAppletDisplayHandle
 .bss.xBrewTaskHLTQueue
                0x20000a94        0x4 Debug/hlt.o
                0x20000a94                xBrewTaskHLTQueue
 .bss.xBrewHLTTaskHandle
                0x20000a98        0x4 Debug/hlt.o
                0x20000a98                xBrewHLTTaskHandle
 .bss.xTaskHLTLevelCheckerTaskHandle
                0x20000a9c        0x4 Debug/hlt.o
                0x20000a9c                xTaskHLTLevelCheckerTaskHandle
 .bss.last_window.7980
                0x20000aa0        0x2 Debug/hlt.o
 .bss.tog.7959  0x20000aa2        0x1 Debug/hlt.o
 *fill*         0x20000aa3        0x1 00
 .bss.cBuffer.7941
                0x20000aa4      0x3e8 Debug/hlt.o
 .bss.ucStep.7925
                0x20000e8c        0x1 Debug/hlt.o
 .bss.uFirst.7915
                0x20000e8d        0x1 Debug/hlt.o
 .bss.ucHeatAndFillMessageSent.7926
                0x20000e8e        0x1 Debug/hlt.o
 *fill*         0x20000e8f        0x1 00
 .bss.fLitresToDrain.7917
                0x20000e90        0x4 Debug/hlt.o
 .bss.fDrainLitres.7913
                0x20000e94        0x4 Debug/hlt.o
 .bss           0x20000e98        0x0 Debug/mash_pump.o
 .bss.xMASHPumpTaskHandle
                0x20000e98        0x4 Debug/mash_pump.o
                0x20000e98                xMASHPumpTaskHandle
 .bss.xMASHPumpAppletDisplayHandle
                0x20000e9c        0x4 Debug/mash_pump.o
                0x20000e9c                xMASHPumpAppletDisplayHandle
 .bss.last_window.6867
                0x20000ea0        0x2 Debug/mash_pump.o
 .bss.tog.6854  0x20000ea2        0x1 Debug/mash_pump.o
 .bss           0x20000ea3        0x0 Debug/mill.o
 *fill*         0x20000ea3        0x1 00
 .bss.xMillTaskHandle
                0x20000ea4        0x4 Debug/mill.o
                0x20000ea4                xMillTaskHandle
 .bss.xMillAppletDisplayHandle
                0x20000ea8        0x4 Debug/mill.o
                0x20000ea8                xMillAppletDisplayHandle
 .bss.xMillState
                0x20000eac        0x1 Debug/mill.o
                0x20000eac                xMillState
 *fill*         0x20000ead        0x1 00
 .bss.last_window.6871
                0x20000eae        0x2 Debug/mill.o
 .bss.tog.6858  0x20000eb0        0x1 Debug/mill.o
 .bss           0x20000eb1        0x0 Debug/boil.o
 *fill*         0x20000eb1        0x3 00
 .bss.xBoilQueue
                0x20000eb4        0x4 Debug/boil.o
                0x20000eb4                xBoilQueue
 .bss.boil_state
                0x20000eb8        0x1 Debug/boil.o
                0x20000eb8                boil_state
 *fill*         0x20000eb9        0x3 00
 .bss.xBoilTaskHandle
                0x20000ebc        0x4 Debug/boil.o
                0x20000ebc                xBoilTaskHandle
 .bss.xBoilAppletDisplayHandle
                0x20000ec0        0x4 Debug/boil.o
                0x20000ec0                xBoilAppletDisplayHandle
 .bss.zero.7345
                0x20000ec4        0x4 Debug/boil.o
 .bss.last_window.7348
                0x20000ec8        0x2 Debug/boil.o
 .bss.tog.7332  0x20000eca        0x1 Debug/boil.o
 *fill*         0x20000ecb        0x1 00
 .bss.buf1.7324
                0x20000ecc       0x34 Debug/boil.o
 .bss.compare.7321
                0x20000f00        0x4 Debug/boil.o
 .bss.buf.7323  0x20000f04       0x34 Debug/boil.o
 .bss           0x20000f38        0x0 Debug/hop_dropper.o
 .bss.uState    0x20000f38        0x1 Debug/hop_dropper.o
                0x20000f38                uState
 *fill*         0x20000f39        0x3 00
 .bss.xHopsNextTaskHandle
                0x20000f3c        0x4 Debug/hop_dropper.o
                0x20000f3c                xHopsNextTaskHandle
 .bss.xHopDropperAppletDisplayHandle
                0x20000f40        0x4 Debug/hop_dropper.o
                0x20000f40                xHopDropperAppletDisplayHandle
 .bss.last_window.7315
                0x20000f44        0x2 Debug/hop_dropper.o
 .bss.tog.7298  0x20000f46        0x1 Debug/hop_dropper.o
 .bss           0x20000f47        0x0 Debug/stir.o
 .bss           0x20000f47        0x0 Debug/stirApplet.o
 *fill*         0x20000f47        0x1 00
 .bss.xStirAppletDisplayHandle
                0x20000f48        0x4 Debug/stirApplet.o
                0x20000f48                xStirAppletDisplayHandle
 .bss.last_window.6853
                0x20000f4c        0x2 Debug/stirApplet.o
 .bss.tog.6839  0x20000f4e        0x1 Debug/stirApplet.o
 .bss           0x20000f4f        0x0 Debug/menu.o
 *fill*         0x20000f4f        0x1 00
 .bss.g_menu    0x20000f50       0x28 Debug/menu.o
 .bss.g_crumbs  0x20000f78        0xc Debug/menu.o
 .bss.g_index   0x20000f84        0x1 Debug/menu.o
 .bss.g_entries
                0x20000f85        0x1 Debug/menu.o
 .bss.g_rows    0x20000f86        0x1 Debug/menu.o
 *fill*         0x20000f87        0x1 00
 .bss.g_rowh    0x20000f88        0x4 Debug/menu.o
 .bss.g_menu_applet
                0x20000f8c        0x4 Debug/menu.o
 .bss.menu_touch_y
                0x20000f90        0x4 Debug/menu.o
 .bss.menu_touch_x
                0x20000f94        0x4 Debug/menu.o
 .bss.g_incoming_command
                0x20000f98        0x4 Debug/menu.o
 .bss           0x20000f9c        0x0 Debug/valves.o
 .bss.xValvesTaskHandle
                0x20000f9c        0x4 Debug/valves.o
                0x20000f9c                xValvesTaskHandle
 .bss.xValvesAppletDisplayHandle
                0x20000fa0        0x4 Debug/valves.o
                0x20000fa0                xValvesAppletDisplayHandle
 .bss.last_window.7455
                0x20000fa4        0x2 Debug/valves.o
 .bss.hlt_last.7442
                0x20000fa6        0x1 Debug/valves.o
 .bss.boil_last.7444
                0x20000fa7        0x1 Debug/valves.o
 .bss.mash_last.7443
                0x20000fa8        0x1 Debug/valves.o
 .bss.inlet_last.7445
                0x20000fa9        0x1 Debug/valves.o
 .bss.chiller_last.7446
                0x20000faa        0x1 Debug/valves.o
 .bss.tog.7432  0x20000fab        0x1 Debug/valves.o
 .bss           0x20000fac        0x0 Debug/diag_temps.o
 .bss.count.7368
                0x20000fac        0x4 Debug/diag_temps.o
 .bss           0x20000fb0        0x0 Debug/crane.o
 .bss.xCraneQueue
                0x20000fb0        0x4 Debug/crane.o
                0x20000fb0                xCraneQueue
 .bss.xCraneTaskHandle
                0x20000fb4        0x4 Debug/crane.o
                0x20000fb4                xCraneTaskHandle
 .bss.xCraneAppletDisplayHandle
                0x20000fb8        0x4 Debug/crane.o
                0x20000fb8                xCraneAppletDisplayHandle
 .bss.last_window.7396
                0x20000fbc        0x2 Debug/crane.o
 .bss.tog.7373  0x20000fbe        0x1 Debug/crane.o
 *fill*         0x20000fbf        0x1 00
 .bss.xLastMessage.7350
                0x20000fc0        0x4 Debug/crane.o
 .bss.xMessage.7349
                0x20000fc4        0x4 Debug/crane.o
 .bss.xToSend.7351
                0x20000fc8        0x4 Debug/crane.o
 .bss.iComplete.7352
                0x20000fcc        0x4 Debug/crane.o
 .bss.iStep.7353
                0x20000fd0        0x4 Debug/crane.o
 .bss.iCommandState.7359
                0x20000fd4        0x4 Debug/crane.o
 .bss.ucDownIncrements.7355
                0x20000fd8        0x1 Debug/crane.o
 .bss           0x20000fd9        0x0 Debug/speaker.o
 *fill*         0x20000fd9        0x3 00
 .bss.last.6766
                0x20000fdc        0x4 Debug/speaker.o
 .bss           0x20000fe0        0x0 Debug/timer.o
 .bss.usMaxJitter
                0x20000fe0        0x2 Debug/timer.o
                0x20000fe0                usMaxJitter
 .bss           0x20000fe2        0x0 Debug/ds1820.o
 .bss.last_window.7965
                0x20000fe2        0x2 Debug/ds1820.o
 .bss.print_buf.7951
                0x20000fe4       0x50 Debug/ds1820.o
 .bss.print_buf.7934
                0x20001034       0x50 Debug/ds1820.o
 .bss.fTemp.7936
                0x20001084       0x1c Debug/ds1820.o
 .bss.fLastTemp.7937
                0x200010a0       0x1c Debug/ds1820.o
 .bss           0x200010bc        0x0 Debug/Flow1.o
 .bss.ulBoilFlowPulses
                0x200010bc        0x4 Debug/Flow1.o
                0x200010bc                ulBoilFlowPulses
 .bss.fLitresDeliveredToBoil
                0x200010c0        0x4 Debug/Flow1.o
                0x200010c0                fLitresDeliveredToBoil
 .bss.fLitresDeliveredToMash
                0x200010c4        0x4 Debug/Flow1.o
                0x200010c4                fLitresDeliveredToMash
 .bss.uBoilFlowState
                0x200010c8        0x1 Debug/Flow1.o
                0x200010c8                uBoilFlowState
 .bss.uMashFlowState
                0x200010c9        0x1 Debug/Flow1.o
                0x200010c9                uMashFlowState
 *fill*         0x200010ca        0x2 00
 .bss.xLitresToBoilHandle
                0x200010cc        0x4 Debug/Flow1.o
                0x200010cc                xLitresToBoilHandle
 .bss.xLitresToMashHandle
                0x200010d0        0x4 Debug/Flow1.o
                0x200010d0                xLitresToMashHandle
 .bss.xFlow1AppletDisplayHandle
                0x200010d4        0x4 Debug/Flow1.o
                0x200010d4                xFlow1AppletDisplayHandle
 .bss.last_window.7922
                0x200010d8        0x2 Debug/Flow1.o
 .bss.tog.7907  0x200010da        0x1 Debug/Flow1.o
 *fill*         0x200010db        0x1 00
 .bss.ulPulsesLast.7882
                0x200010dc        0x4 Debug/Flow1.o
 .bss.ulPulsesLast.7873
                0x200010e0        0x4 Debug/Flow1.o
 .bss           0x200010e4        0x0 Debug/diag_pwm.o
 .bss.count.7374
                0x200010e4        0x4 Debug/diag_pwm.o
 .bss           0x200010e8        0x0 Debug/I2C-IO.o
 .bss.cnt.7020  0x200010e8        0x1 Debug/I2C-IO.o
 *fill*         0x200010e9        0x3 00
 .bss.pcPrintBuf.7026
                0x200010ec       0x50 Debug/I2C-IO.o
 .bss.flag.7011
                0x2000113c        0x1 Debug/I2C-IO.o
 .bss           0x2000113d        0x0 Debug/chiller_pump.o
 *fill*         0x2000113d        0x3 00
 .bss.xCHILLERPumpTaskHandle
                0x20001140        0x4 Debug/chiller_pump.o
                0x20001140                xCHILLERPumpTaskHandle
 .bss.xCHILLERPumpAppletDisplayHandle
                0x20001144        0x4 Debug/chiller_pump.o
                0x20001144                xCHILLERPumpAppletDisplayHandle
 .bss.last_window.6887
                0x20001148        0x2 Debug/chiller_pump.o
 .bss.tog.6874  0x2000114a        0x1 Debug/chiller_pump.o
 .bss           0x2000114b        0x0 Debug/console.o
 *fill*         0x2000114b        0x1 00
 .bss.pcLastMessage.7401
                0x2000114c        0x4 Debug/console.o
 .bss           0x20001150        0x0 Debug/brew.o
 .bss.BrewState
                0x20001150       0x18 Debug/brew.o
                0x20001150                BrewState
 .bss.xBrewTaskHandle
                0x20001168        0x4 Debug/brew.o
                0x20001168                xBrewTaskHandle
 .bss.xBrewAppletDisplayHandle
                0x2000116c        0x4 Debug/brew.o
                0x2000116c                xBrewAppletDisplayHandle
 .bss.xBrewGraphAppletDisplayHandle
                0x20001170        0x4 Debug/brew.o
                0x20001170                xBrewGraphAppletDisplayHandle
 .bss.xBrewStatsAppletDisplayHandle
                0x20001174        0x4 Debug/brew.o
                0x20001174                xBrewStatsAppletDisplayHandle
 .bss.xBrewResAppletDisplayHandle
                0x20001178        0x4 Debug/brew.o
                0x20001178                xBrewResAppletDisplayHandle
 .bss.xBrewTaskStateQueue
                0x2000117c        0x4 Debug/brew.o
                0x2000117c                xBrewTaskStateQueue
 .bss.xBrewTaskReceiveQueue
                0x20001180        0x4 Debug/brew.o
                0x20001180                xBrewTaskReceiveQueue
 .bss.xBrewAppletTextQueue
                0x20001184        0x4 Debug/brew.o
                0x20001184                xBrewAppletTextQueue
 .bss.iAppletState
                0x20001188        0x4 Debug/brew.o
 .bss.ucResStep
                0x2000118c        0x1 Debug/brew.o
 *fill*         0x2000118d        0x3 00
 .bss.iBoilState
                0x20001190        0x4 Debug/brew.o
 .bss.xBoilMessage
                0x20001194        0x4 Debug/brew.o
 .bss.xBoilTextMessage
                0x20001198        0x4 Debug/brew.o
 .bss.xMessage.7908
                0x2000119c        0x4 Debug/brew.o
 .bss.ucPause.7907
                0x200011a0        0x1 Debug/brew.o
 .bss.iOneShot.7906
                0x200011a1        0x1 Debug/brew.o
 .bss.last_window.7900
                0x200011a2        0x2 Debug/brew.o
 .bss.buf.7875  0x200011a4      0x140 Debug/brew.o
 .bss.tog.7866  0x200012e4        0x1 Debug/brew.o
 *fill*         0x200012e5        0x3 00
 .bss.a.7877    0x200012e8       0x28 Debug/brew.o
 .bss.j.7883    0x20001310        0x4 Debug/brew.o
 .bss.b.7876    0x20001314       0x28 Debug/brew.o
 .bss.ucLastStep.7861
                0x2000133c        0x1 Debug/brew.o
 *fill*         0x2000133d        0x3 00
 .bss.buf.7835  0x20001340       0x34 Debug/brew.o
 .bss.iLastTime.7834
                0x20001374        0x4 Debug/brew.o
 .bss.flag.7797
                0x20001378        0x4 Debug/brew.o
 .bss.buf.7796  0x2000137c       0x34 Debug/brew.o
 .bss.xMessage.7762
                0x200013b0        0x4 Debug/brew.o
 .bss.xMessage.7754
                0x200013b4        0x4 Debug/brew.o
 .bss.iCommand.7740
                0x200013b8        0x4 Debug/brew.o
 .bss.xMessage.7739
                0x200013bc        0x4 Debug/brew.o
 .bss.iCommand.7735
                0x200013c0        0x4 Debug/brew.o
 .bss.xMessage.7734
                0x200013c4        0x4 Debug/brew.o
 .bss.Content.7708
                0x200013c8        0x4 Debug/brew.o
 .bss.buf.7704  0x200013cc       0x34 Debug/brew.o
 .bss.iCount.7699
                0x20001400        0x4 Debug/brew.o
 .bss.xMessage.7695
                0x20001404        0x4 Debug/brew.o
 .bss.iCommand.7696
                0x20001408        0x4 Debug/brew.o
 .bss.buf.7697  0x2000140c       0x34 Debug/brew.o
 .bss.buf1.7698
                0x20001440       0x34 Debug/brew.o
 .bss.xMessage.7690
                0x20001474        0x4 Debug/brew.o
 .bss.uMsg.7672
                0x20001478        0x1 Debug/brew.o
 *fill*         0x20001479        0x3 00
 .bss.buf.7677  0x2000147c       0x34 Debug/brew.o
 .bss.iContent.7674
                0x200014b0        0x4 Debug/brew.o
 .bss.buf1.7678
                0x200014b4       0x34 Debug/brew.o
 .bss.iWaiting.7675
                0x200014e8        0x4 Debug/brew.o
 .bss.iStepsToComplete.7676
                0x200014ec        0x4 Debug/brew.o
 .bss.uBrewHoursElapsed.7671
                0x200014f0        0x2 Debug/brew.o
 .bss.uBrewMinutesElapsed.7670
                0x200014f2        0x2 Debug/brew.o
 .bss.uBrewSecondsElapsed.7669
                0x200014f4        0x2 Debug/brew.o
 *fill*         0x200014f6        0x2 00
 .bss.buf.7630  0x200014f8       0x34 Debug/brew.o
 .bss           0x2000152c        0x0 Debug/parameters.o
 .bss.xParametersAppletDisplayHandle
                0x2000152c        0x4 Debug/parameters.o
                0x2000152c                xParametersAppletDisplayHandle
 .bss.indexToList
                0x20001530        0x4 Debug/parameters.o
 .bss.indexToChar.7825
                0x20001534        0x4 Debug/parameters.o
 .bss.last_window.7824
                0x20001538        0x2 Debug/parameters.o
 .bss.tog.7810  0x2000153a        0x1 Debug/parameters.o
 .bss           0x2000153b        0x0 Debug/boil_valve.o
 *fill*         0x2000153b        0x1 00
 .bss.pxMessage.7913
                0x2000153c        0x4 Debug/boil_valve.o
 .bss.last_window.7912
                0x20001540        0x2 Debug/boil_valve.o
 .bss.tog.7893  0x20001542        0x1 Debug/boil_valve.o
 *fill*         0x20001543        0x1 00
 .bss.xLastMessage.7871
                0x20001544        0x4 Debug/boil_valve.o
 .bss.xMessage.7870
                0x20001548        0x4 Debug/boil_valve.o
 .bss.xToSend.7872
                0x2000154c        0x4 Debug/boil_valve.o
 .bss.iComplete.7873
                0x20001550        0x4 Debug/boil_valve.o
 .bss.iCommandState.7877
                0x20001554        0x4 Debug/boil_valve.o
 .bss           0x20001558        0x0 Debug/stf_syscalls_minimal.o
 .bss.__env     0x20001558        0x4 Debug/stf_syscalls_minimal.o
                0x20001558                __env
 .bss.heap      0x2000155c        0x4 Debug/stf_syscalls_minimal.o
                0x2000155c                heap
 .bss           0x20001560        0x0 Debug/io_util.o
 .bss           0x20001560        0x0 Debug/core_cm3.o
 .bss           0x20001560        0x0 Debug/system_stm32f10x.o
 .bss           0x20001560        0x0 Debug/stm32f10x_it.o
 .bss           0x20001560        0x0 Debug/stm32f10x_i2c.o
 .bss           0x20001560        0x0 Debug/misc.o
 .bss           0x20001560        0x0 Debug/stm32f10x_rcc.o
 .bss           0x20001560        0x0 Debug/stm32f10x_gpio.o
 .bss           0x20001560        0x0 Debug/stm32f10x_spi.o
 .bss           0x20001560        0x0 Debug/stm32f10x_tim.o
 .bss           0x20001560        0x0 Debug/stm32f10x_usart.o
 .bss           0x20001560        0x0 Debug/stm32f10x_fsmc.o
 .bss           0x20001560        0x0 Debug/stm32f10x_flash.o
 .bss           0x20001560        0x0 Debug/stm32f10x_adc.o
 .bss           0x20001560        0x0 Debug/stm32f10x_exti.o
 .bss           0x20001560        0x0 Debug/list.o
 .bss           0x20001560        0x0 Debug/queue.o
 .bss           0x20001560        0x0 Debug/tasks.o
 .bss.pxCurrentTCB
                0x20001560        0x4 Debug/tasks.o
                0x20001560                pxCurrentTCB
 .bss.pxReadyTasksLists
                0x20001564       0x64 Debug/tasks.o
 .bss.xDelayedTaskList1
                0x200015c8       0x14 Debug/tasks.o
 .bss.xDelayedTaskList2
                0x200015dc       0x14 Debug/tasks.o
 .bss.pxDelayedTaskList
                0x200015f0        0x4 Debug/tasks.o
 .bss.pxOverflowDelayedTaskList
                0x200015f4        0x4 Debug/tasks.o
 .bss.xPendingReadyList
                0x200015f8       0x14 Debug/tasks.o
 .bss.xTasksWaitingTermination
                0x2000160c       0x14 Debug/tasks.o
 .bss.uxTasksDeleted
                0x20001620        0x4 Debug/tasks.o
 .bss.xSuspendedTaskList
                0x20001624       0x14 Debug/tasks.o
 .bss.uxCurrentNumberOfTasks
                0x20001638        0x4 Debug/tasks.o
 .bss.xTickCount
                0x2000163c        0x4 Debug/tasks.o
 .bss.uxTopUsedPriority
                0x20001640        0x4 Debug/tasks.o
 .bss.uxTopReadyPriority
                0x20001644        0x4 Debug/tasks.o
 .bss.xSchedulerRunning
                0x20001648        0x4 Debug/tasks.o
 .bss.uxSchedulerSuspended
                0x2000164c        0x4 Debug/tasks.o
 .bss.uxMissedTicks
                0x20001650        0x4 Debug/tasks.o
 .bss.xMissedYield
                0x20001654        0x4 Debug/tasks.o
 .bss.xNumOfOverflows
                0x20001658        0x4 Debug/tasks.o
 .bss.uxTaskNumber
                0x2000165c        0x4 Debug/tasks.o
 .bss.pcTraceBuffer
                0x20001660        0x4 Debug/tasks.o
 .bss.pcTraceBufferStart
                0x20001664        0x4 Debug/tasks.o
 .bss.pcTraceBufferEnd
                0x20001668        0x4 Debug/tasks.o
 .bss.xTracing  0x2000166c        0x4 Debug/tasks.o
 .bss.pcStatusString
                0x20001670       0x34 Debug/tasks.o
 .bss           0x200016a4        0x0 Debug/port.o
 .bss           0x200016a4        0x0 Debug/heap_2.o
 *fill*         0x200016a4        0x4 00
 .bss.xHeap     0x200016a8     0xd400 Debug/heap_2.o
 .bss.xStart    0x2000eaa8        0x8 Debug/heap_2.o
 .bss.xEnd      0x2000eab0        0x8 Debug/heap_2.o
 .bss.xFreeBytesRemaining
                0x2000eab8        0x4 Debug/heap_2.o
 .bss.xHeapHasBeenInitialised.4687
                0x2000eabc        0x4 Debug/heap_2.o
 .bss           0x2000eac0        0x0 Debug/startup_stm32f10x.o
 .bss.pulStack  0x2000eac0      0x400 Debug/startup_stm32f10x.o
 .bss           0x2000eec0        0x0 /usr/local/CodeSourcery/bin/../lib/gcc/arm-none-eabi/4.5.2/../../../../arm-none-eabi/lib/thumb2/libm.a(lib_a-s_floor.o)
 .bss           0x2000eec0        0x0 /usr/local/CodeSourcery/bin/../lib/gcc/arm-none-eabi/4.5.2/thumb2/libgcc.a(_arm_addsubdf3.o)
 .bss           0x2000eec0        0x0 /usr/local/CodeSourcery/bin/../lib/gcc/arm-none-eabi/4.5.2/thumb2/libgcc.a(_arm_muldivdf3.o)
 .bss           0x2000eec0        0x0 /usr/local/CodeSourcery/bin/../lib/gcc/arm-none-eabi/4.5.2/thumb2/libgcc.a(_arm_cmpdf2.o)
 .bss           0x2000eec0        0x0 /usr/local/CodeSourcery/bin/../lib/gcc/arm-none-eabi/4.5.2/thumb2/libgcc.a(_arm_fixunsdfsi.o)
 .bss           0x2000eec0        0x0 /usr/local/CodeSourcery/bin/../lib/gcc/arm-none-eabi/4.5.2/thumb2/libgcc.a(_arm_truncdfsf2.o)
 .bss           0x2000eec0        0x0 /usr/local/CodeSourcery/bin/../lib/gcc/arm-none-eabi/4.5.2/thumb2/libgcc.a(_arm_addsubsf3.o)
 .bss           0x2000eec0        0x0 /usr/local/CodeSourcery/bin/../lib/gcc/arm-none-eabi/4.5.2/thumb2/libgcc.a(_arm_muldivsf3.o)
 .bss           0x2000eec0        0x0 /usr/local/CodeSourcery/bin/../lib/gcc/arm-none-eabi/4.5.2/thumb2/libgcc.a(_arm_cmpsf2.o)
 .bss           0x2000eec0        0x0 /usr/local/CodeSourcery/bin/../lib/gcc/arm-none-eabi/4.5.2/thumb2/libgcc.a(_arm_fixsfsi.o)
 .bss           0x2000eec0        0x0 /usr/local/CodeSourcery/bin/../lib/gcc/arm-none-eabi/4.5.2/../../../../arm-none-eabi/lib/thumb2/libc.a(lib_a-atof.o)
 .bss           0x2000eec0        0x0 /usr/local/CodeSourcery/bin/../lib/gcc/arm-none-eabi/4.5.2/../../../../arm-none-eabi/lib/thumb2/libc.a(lib_a-atoi.o)
 .bss           0x2000eec0        0x0 /usr/local/CodeSourcery/bin/../lib/gcc/arm-none-eabi/4.5.2/../../../../arm-none-eabi/lib/thumb2/libc.a(lib_a-fflush.o)
 .bss           0x2000eec0        0x0 /usr/local/CodeSourcery/bin/../lib/gcc/arm-none-eabi/4.5.2/../../../../arm-none-eabi/lib/thumb2/libc.a(lib_a-findfp.o)
 .bss           0x2000eec0        0x0 /usr/local/CodeSourcery/bin/../lib/gcc/arm-none-eabi/4.5.2/../../../../arm-none-eabi/lib/thumb2/libc.a(lib_a-fwalk.o)
 .bss           0x2000eec0        0x0 /usr/local/CodeSourcery/bin/../lib/gcc/arm-none-eabi/4.5.2/../../../../arm-none-eabi/lib/thumb2/libc.a(lib_a-impure.o)
 .bss           0x2000eec0        0x0 /usr/local/CodeSourcery/bin/../lib/gcc/arm-none-eabi/4.5.2/../../../../arm-none-eabi/lib/thumb2/libc.a(lib_a-malloc.o)
 .bss           0x2000eec0        0x0 /usr/local/CodeSourcery/bin/../lib/gcc/arm-none-eabi/4.5.2/../../../../arm-none-eabi/lib/thumb2/libc.a(lib_a-memcmp.o)
 .bss           0x2000eec0        0x0 /usr/local/CodeSourcery/bin/../lib/gcc/arm-none-eabi/4.5.2/../../../../arm-none-eabi/lib/thumb2/libc.a(lib_a-memcpy.o)
 .bss           0x2000eec0        0x0 /usr/local/CodeSourcery/bin/../lib/gcc/arm-none-eabi/4.5.2/../../../../arm-none-eabi/lib/thumb2/libc.a(lib_a-memset.o)
 .bss           0x2000eec0        0x0 /usr/local/CodeSourcery/bin/../lib/gcc/arm-none-eabi/4.5.2/../../../../arm-none-eabi/lib/thumb2/libc.a(lib_a-putchar.o)
 .bss           0x2000eec0        0x0 /usr/local/CodeSourcery/bin/../lib/gcc/arm-none-eabi/4.5.2/../../../../arm-none-eabi/lib/thumb2/libc.a(lib_a-puts.o)
 .bss           0x2000eec0        0x0 /usr/local/CodeSourcery/bin/../lib/gcc/arm-none-eabi/4.5.2/../../../../arm-none-eabi/lib/thumb2/libc.a(lib_a-reent.o)
 .bss           0x2000eec0        0x0 /usr/local/CodeSourcery/bin/../lib/gcc/arm-none-eabi/4.5.2/../../../../arm-none-eabi/lib/thumb2/libc.a(lib_a-stdio.o)
 .bss           0x2000eec0        0x0 /usr/local/CodeSourcery/bin/../lib/gcc/arm-none-eabi/4.5.2/../../../../arm-none-eabi/lib/thumb2/libc.a(lib_a-strcat.o)
 .bss           0x2000eec0        0x0 /usr/local/CodeSourcery/bin/../lib/gcc/arm-none-eabi/4.5.2/../../../../arm-none-eabi/lib/thumb2/libc.a(lib_a-strcmp.o)
 .bss           0x2000eec0        0x0 /usr/local/CodeSourcery/bin/../lib/gcc/arm-none-eabi/4.5.2/../../../../arm-none-eabi/lib/thumb2/libc.a(lib_a-strcpy.o)
 .bss           0x2000eec0        0x0 /usr/local/CodeSourcery/bin/../lib/gcc/arm-none-eabi/4.5.2/../../../../arm-none-eabi/lib/thumb2/libc.a(lib_a-strlen.o)
 .bss           0x2000eec0        0x0 /usr/local/CodeSourcery/bin/../lib/gcc/arm-none-eabi/4.5.2/../../../../arm-none-eabi/lib/thumb2/libc.a(lib_a-strncpy.o)
 .bss           0x2000eec0        0x0 /usr/local/CodeSourcery/bin/../lib/gcc/arm-none-eabi/4.5.2/../../../../arm-none-eabi/lib/thumb2/libc.a(lib_a-strtod.o)
 .bss           0x2000eec0        0x0 /usr/local/CodeSourcery/bin/../lib/gcc/arm-none-eabi/4.5.2/../../../../arm-none-eabi/lib/thumb2/libc.a(lib_a-strtol.o)
 .bss           0x2000eec0        0x0 /usr/local/CodeSourcery/bin/../lib/gcc/arm-none-eabi/4.5.2/../../../../arm-none-eabi/lib/thumb2/libc.a(lib_a-vsnprintf.o)
 .bss           0x2000eec0        0x0 /usr/local/CodeSourcery/bin/../lib/gcc/arm-none-eabi/4.5.2/../../../../arm-none-eabi/lib/thumb2/libc.a(lib_a-writer.o)
 .bss           0x2000eec0        0x0 /usr/local/CodeSourcery/bin/../lib/gcc/arm-none-eabi/4.5.2/../../../../arm-none-eabi/lib/thumb2/libc.a(lib_a-closer.o)
 .bss           0x2000eec0        0x0 /usr/local/CodeSourcery/bin/../lib/gcc/arm-none-eabi/4.5.2/../../../../arm-none-eabi/lib/thumb2/libc.a(lib_a-ctype_.o)
 .bss           0x2000eec0        0x0 /usr/local/CodeSourcery/bin/../lib/gcc/arm-none-eabi/4.5.2/../../../../arm-none-eabi/lib/thumb2/libc.a(lib_a-fclose.o)
 .bss           0x2000eec0        0x0 /usr/local/CodeSourcery/bin/../lib/gcc/arm-none-eabi/4.5.2/../../../../arm-none-eabi/lib/thumb2/libc.a(lib_a-fvwrite.o)
 .bss           0x2000eec0        0x0 /usr/local/CodeSourcery/bin/../lib/gcc/arm-none-eabi/4.5.2/../../../../arm-none-eabi/lib/thumb2/libc.a(lib_a-gdtoa-gethex.o)
 .bss           0x2000eec0        0x0 /usr/local/CodeSourcery/bin/../lib/gcc/arm-none-eabi/4.5.2/../../../../arm-none-eabi/lib/thumb2/libc.a(lib_a-gdtoa-hexnan.o)
 .bss           0x2000eec0        0xc /usr/local/CodeSourcery/bin/../lib/gcc/arm-none-eabi/4.5.2/../../../../arm-none-eabi/lib/thumb2/libc.a(lib_a-locale.o)
                0x2000eec0                __nlocale_changed
                0x2000eec4                __mlocale_changed
                0x2000eec8                _PathLocale
 .bss           0x2000eecc        0x0 /usr/local/CodeSourcery/bin/../lib/gcc/arm-none-eabi/4.5.2/../../../../arm-none-eabi/lib/thumb2/libc.a(lib_a-lseekr.o)
 .bss           0x2000eecc        0x0 /usr/local/CodeSourcery/bin/../lib/gcc/arm-none-eabi/4.5.2/../../../../arm-none-eabi/lib/thumb2/libc.a(lib_a-memchr.o)
 .bss           0x2000eecc        0x0 /usr/local/CodeSourcery/bin/../lib/gcc/arm-none-eabi/4.5.2/../../../../arm-none-eabi/lib/thumb2/libc.a(lib_a-memmove.o)
 .bss           0x2000eecc        0x0 /usr/local/CodeSourcery/bin/../lib/gcc/arm-none-eabi/4.5.2/../../../../arm-none-eabi/lib/thumb2/libc.a(lib_a-mprec.o)
 .bss           0x2000eecc        0x0 /usr/local/CodeSourcery/bin/../lib/gcc/arm-none-eabi/4.5.2/../../../../arm-none-eabi/lib/thumb2/libc.a(lib_a-putc.o)
 .bss           0x2000eecc        0x0 /usr/local/CodeSourcery/bin/../lib/gcc/arm-none-eabi/4.5.2/../../../../arm-none-eabi/lib/thumb2/libc.a(lib_a-readr.o)
 .bss           0x2000eecc        0x0 /usr/local/CodeSourcery/bin/../lib/gcc/arm-none-eabi/4.5.2/../../../../arm-none-eabi/lib/thumb2/libc.a(lib_a-strncmp.o)
 .bss           0x2000eecc        0x0 /usr/local/CodeSourcery/bin/../lib/gcc/arm-none-eabi/4.5.2/../../../../arm-none-eabi/lib/thumb2/libc.a(lib_a-svfprintf.o)
 .bss           0x2000eecc        0x0 /usr/local/CodeSourcery/bin/../lib/gcc/arm-none-eabi/4.5.2/../../../../arm-none-eabi/lib/thumb2/libc.a(lib_a-wbuf.o)
 .bss           0x2000eecc        0x0 /usr/local/CodeSourcery/bin/../lib/gcc/arm-none-eabi/4.5.2/../../../../arm-none-eabi/lib/thumb2/libc.a(lib_a-wsetup.o)
 .bss           0x2000eecc        0x0 /usr/local/CodeSourcery/bin/../lib/gcc/arm-none-eabi/4.5.2/../../../../arm-none-eabi/lib/thumb2/libc.a(lib_a-dtoa.o)
 .bss           0x2000eecc        0x0 /usr/local/CodeSourcery/bin/../lib/gcc/arm-none-eabi/4.5.2/../../../../arm-none-eabi/lib/thumb2/libc.a(lib_a-makebuf.o)
 .bss           0x2000eecc        0x0 /usr/local/CodeSourcery/bin/../lib/gcc/arm-none-eabi/4.5.2/../../../../arm-none-eabi/lib/thumb2/libc.a(lib_a-s_fpclassify.o)
 .bss           0x2000eecc        0x0 /usr/local/CodeSourcery/bin/../lib/gcc/arm-none-eabi/4.5.2/../../../../arm-none-eabi/lib/thumb2/libc.a(lib_a-svfiprintf.o)
 .bss           0x2000eecc        0x0 /usr/local/CodeSourcery/bin/../lib/gcc/arm-none-eabi/4.5.2/../../../../arm-none-eabi/lib/thumb2/libc.a(lib_a-fstatr.o)
 .bss           0x2000eecc        0x0 /usr/local/CodeSourcery/bin/../lib/gcc/arm-none-eabi/4.5.2/../../../../arm-none-eabi/lib/thumb2/libc.a(lib_a-isattyr.o)
 .bss           0x2000eecc        0x0 /usr/local/CodeSourcery/bin/../lib/gcc/arm-none-eabi/4.5.2/thumb2/libgcc.a(_udivsi3.o)
 .bss           0x2000eecc        0x0 /usr/local/CodeSourcery/bin/../lib/gcc/arm-none-eabi/4.5.2/thumb2/libgcc.a(_dvmd_tls.o)
 .bss           0x2000eecc        0x0 /usr/local/CodeSourcery/bin/../lib/gcc/arm-none-eabi/4.5.2/thumb2/libgcc.a(_arm_fixdfsi.o)
 .bss           0x2000eecc        0x0 /usr/local/CodeSourcery/bin/../lib/gcc/arm-none-eabi/4.5.2/thumb2/libgcc.a(_aeabi_uldivmod.o)
 .bss           0x2000eecc        0x0 /usr/local/CodeSourcery/bin/../lib/gcc/arm-none-eabi/4.5.2/thumb2/libgcc.a(bpabi.o)
 .bss           0x2000eecc        0x0 /usr/local/CodeSourcery/bin/../lib/gcc/arm-none-eabi/4.5.2/thumb2/libgcc.a(_divdi3.o)
 .bss           0x2000eecc        0x0 /usr/local/CodeSourcery/bin/../lib/gcc/arm-none-eabi/4.5.2/thumb2/libgcc.a(_udivdi3.o)
 *(COMMON)
 COMMON         0x2000eecc       0x3c Debug/main.o
                0x2000eecc                xCheckTaskHandle
                0x2000eed0                xHopsTaskHandle
                0x2000eed4                xSerialControlTaskHandle
                0x2000eed8                xBeepTaskHandle
                0x2000eedc                xDS1820TaskHandle
                0x2000eee0                xTouchTaskHandle
                0x2000eee4                xHopsQueue
                0x2000eee8                xI2C_SendHandle
                0x2000eeec                ITM_RxBuffer
                0x2000eef0                xTimerSetupHandle
                0x2000eef4                xLCDTaskHandle
                0x2000eef8                xPrintTaskHandle
                0x2000eefc                xI2C_TestHandle
                0x2000ef00                xSerialHandlerTaskHandle
                0x2000ef04                xBoilValveTaskHandle
 COMMON         0x2000ef08        0x4 Debug/lcd.o
                0x2000ef08                xLcdSemaphore
 COMMON         0x2000ef0c      0x130 Debug/serial.o
                0x2000ef0c                cmp
                0x2000ef2c                xCommandQueue
                0x2000ef30                U1Rx
                0x2000efb4                U1Tx
                0x2000f038                xSerialHandlerSemaphore
 COMMON         0x2000f03c        0x4 Debug/hlt.o
                0x2000f03c                xHLTAppletRunningSemaphore
 COMMON         0x2000f040        0x4 Debug/mash_pump.o
                0x2000f040                xAppletRunningSemaphore
 COMMON         0x2000f044        0x4 Debug/hop_dropper.o
                0x2000f044                xHopAppletRunningSemaphore
 COMMON         0x2000f048        0x1 Debug/stir.o
                0x2000f048                xStirState
 *fill*         0x2000f049        0x3 00
 COMMON         0x2000f04c        0x4 Debug/stirApplet.o
                0x2000f04c                xStirAppletRunningSemaphore
 COMMON         0x2000f050        0x4 Debug/valves.o
                0x2000f050                xValvesAppletRunningSemaphore
 COMMON         0x2000f054        0x4 Debug/diag_temps.o
                0x2000f054                xTaskDS1820DisplayTempsHandle
 COMMON         0x2000f058        0x4 Debug/crane.o
                0x2000f058                pxMessage
 COMMON         0x2000f05c        0x4 Debug/speaker.o
                0x2000f05c                xBeepQueue
 COMMON         0x2000f060       0x32 Debug/timer.o
                0x2000f060                buf
 *fill*         0x2000f092        0x2 00
 COMMON         0x2000f094       0x40 Debug/ds1820.o
                0x2000f094                b
                0x2000f0b0                rom
                0x2000f0b8                temps
 COMMON         0x2000f0d4       0x10 Debug/Flow1.o
                0x2000f0d4                ulMashFlowPulses
                0x2000f0d8                xLitresToMashQueue
                0x2000f0dc                xLitresToBoilQueue
                0x2000f0e0                xFlow1AppletRunningSemaphore
 COMMON         0x2000f0e4        0x8 Debug/diag_pwm.o
                0x2000f0e4                xTaskDiagPWMAppletHandle
                0x2000f0e8                xPWMAppletRunningSemaphore
 COMMON         0x2000f0ec        0x4 Debug/I2C-IO.o
                0x2000f0ec                xI2C_SendQueue
 COMMON         0x2000f0f0        0x4 Debug/chiller_pump.o
                0x2000f0f0                xChillerAppletRunningSemaphore
 COMMON         0x2000f0f4        0x4 Debug/console.o
                0x2000f0f4                xPrintQueue
 COMMON         0x2000f0f8       0x28 Debug/brew.o
                0x2000f0f8                xMessage2
                0x2000f104                iStirTime2
                0x2000f108                iMashTime
                0x2000f10c                iPumpTime1
                0x2000f110                iStirTime1
                0x2000f114                xBrewAppletRunningSemaphore
                0x2000f118                xMessage1
                0x2000f11c                iPumpTime2
 COMMON         0x2000f120       0xbc Debug/parameters.o
                0x2000f120                input
                0x2000f140                BrewParameters
 COMMON         0x2000f1dc        0x8 Debug/boil_valve.o
                0x2000f1dc                xBoilValveQueue
                0x2000f1e0                xBoilValveAppletDisplayHandle
 COMMON         0x2000f1e4        0x2 Debug/io_util.o
                0x2000f1e4                uRunTimeCounter
 *fill*         0x2000f1e6        0x2 00
 COMMON         0x2000f1e8        0x4 /usr/local/CodeSourcery/bin/../lib/gcc/arm-none-eabi/4.5.2/../../../../arm-none-eabi/lib/thumb2/libc.a(lib_a-reent.o)
                0x2000f1e8                errno
 COMMON         0x2000f1ec      0x100 /usr/local/CodeSourcery/bin/../lib/gcc/arm-none-eabi/4.5.2/../../../../arm-none-eabi/lib/thumb2/libc.a(lib_a-gdtoa-gethex.o)
                0x2000f1ec                __hexdig
                0x2000f2ec                _ebss = .
                0x2000f2ec                _end = .
                0x2000f2ec                __end = .
                0x2000f2ec                PROVIDE (_heap, _end)
                0x2000fff8                PROVIDE (_eheap, 0x2000fff8)
OUTPUT(RTOSBrew.axf elf32-littlearm)

.debug_abbrev   0x00000000     0x76d6
 .debug_abbrev  0x00000000      0x318 Debug/main.o
 .debug_abbrev  0x00000318      0x356 Debug/lcd.o
 .debug_abbrev  0x0000066e      0x14b Debug/printf-stdarg.o
 .debug_abbrev  0x000007b9      0x29b Debug/touch.o
 .debug_abbrev  0x00000a54      0x357 Debug/serial.o
 .debug_abbrev  0x00000dab      0x230 Debug/adc.o
 .debug_abbrev  0x00000fdb      0x215 Debug/leds.o
 .debug_abbrev  0x000011f0      0x236 Debug/buffer.o
 .debug_abbrev  0x00001426      0x2a3 Debug/hlt.o
 .debug_abbrev  0x000016c9      0x26e Debug/mash_pump.o
 .debug_abbrev  0x00001937      0x26e Debug/mill.o
 .debug_abbrev  0x00001ba5      0x2b6 Debug/boil.o
 .debug_abbrev  0x00001e5b      0x29a Debug/hop_dropper.o
 .debug_abbrev  0x000020f5      0x254 Debug/stir.o
 .debug_abbrev  0x00002349      0x26e Debug/stirApplet.o
 .debug_abbrev  0x000025b7      0x151 Debug/menu.o
 .debug_abbrev  0x00002708      0x267 Debug/valves.o
 .debug_abbrev  0x0000296f      0x267 Debug/diag_temps.o
 .debug_abbrev  0x00002bd6      0x2c9 Debug/crane.o
 .debug_abbrev  0x00002e9f      0x284 Debug/speaker.o
 .debug_abbrev  0x00003123      0x251 Debug/timer.o
 .debug_abbrev  0x00003374      0x300 Debug/ds1820.o
 .debug_abbrev  0x00003674      0x2af Debug/Flow1.o
 .debug_abbrev  0x00003923      0x27d Debug/diag_pwm.o
 .debug_abbrev  0x00003ba0      0x310 Debug/I2C-IO.o
 .debug_abbrev  0x00003eb0      0x26e Debug/chiller_pump.o
 .debug_abbrev  0x0000411e      0x2b5 Debug/console.o
 .debug_abbrev  0x000043d3      0x2fb Debug/brew.o
 .debug_abbrev  0x000046ce      0x25a Debug/parameters.o
 .debug_abbrev  0x00004928      0x28e Debug/boil_valve.o
 .debug_abbrev  0x00004bb6      0x2f7 Debug/stf_syscalls_minimal.o
 .debug_abbrev  0x00004ead      0x252 Debug/io_util.o
 .debug_abbrev  0x000050ff       0xd7 Debug/core_cm3.o
 .debug_abbrev  0x000051d6      0x24e Debug/system_stm32f10x.o
 .debug_abbrev  0x00005424      0x1e1 Debug/stm32f10x_it.o
 .debug_abbrev  0x00005605      0x247 Debug/stm32f10x_i2c.o
 .debug_abbrev  0x0000584c      0x20e Debug/misc.o
 .debug_abbrev  0x00005a5a      0x262 Debug/stm32f10x_rcc.o
 .debug_abbrev  0x00005cbc      0x27c Debug/stm32f10x_gpio.o
 .debug_abbrev  0x00005f38      0x256 Debug/stm32f10x_spi.o
 .debug_abbrev  0x0000618e      0x238 Debug/stm32f10x_tim.o
 .debug_abbrev  0x000063c6      0x254 Debug/stm32f10x_usart.o
 .debug_abbrev  0x0000661a      0x24d Debug/stm32f10x_fsmc.o
 .debug_abbrev  0x00006867      0x299 Debug/stm32f10x_flash.o
 .debug_abbrev  0x00006b00      0x25e Debug/stm32f10x_adc.o
 .debug_abbrev  0x00006d5e      0x261 Debug/stm32f10x_exti.o
 .debug_abbrev  0x00006fbf       0xb8 Debug/list.o
 .debug_abbrev  0x00007077      0x142 Debug/queue.o
 .debug_abbrev  0x000071b9      0x1b7 Debug/tasks.o
 .debug_abbrev  0x00007370      0x122 Debug/port.o
 .debug_abbrev  0x00007492      0x15e Debug/heap_2.o
 .debug_abbrev  0x000075f0       0xe6 Debug/startup_stm32f10x.o

.debug_info     0x00000000    0x3801d
 .debug_info    0x00000000     0x1612 Debug/main.o
 .debug_info    0x00001612     0x18c5 Debug/lcd.o
 .debug_info    0x00002ed7      0x3b5 Debug/printf-stdarg.o
 .debug_info    0x0000328c     0x116f Debug/touch.o
 .debug_info    0x000043fb     0x1bde Debug/serial.o
 .debug_info    0x00005fd9      0xed4 Debug/adc.o
 .debug_info    0x00006ead      0xef0 Debug/leds.o
 .debug_info    0x00007d9d      0xe01 Debug/buffer.o
 .debug_info    0x00008b9e     0x1532 Debug/hlt.o
 .debug_info    0x0000a0d0      0xf92 Debug/mash_pump.o
 .debug_info    0x0000b062      0xfb7 Debug/mill.o
 .debug_info    0x0000c019     0x151e Debug/boil.o
 .debug_info    0x0000d537     0x1092 Debug/hop_dropper.o
 .debug_info    0x0000e5c9      0xd7e Debug/stir.o
 .debug_info    0x0000f347      0xe17 Debug/stirApplet.o
 .debug_info    0x0001015e      0x4d5 Debug/menu.o
 .debug_info    0x00010633     0x10d5 Debug/valves.o
 .debug_info    0x00011708      0xe1c Debug/diag_temps.o
 .debug_info    0x00012524     0x117a Debug/crane.o
 .debug_info    0x0001369e      0xed4 Debug/speaker.o
 .debug_info    0x00014572     0x127b Debug/timer.o
 .debug_info    0x000157ed     0x1685 Debug/ds1820.o
 .debug_info    0x00016e72     0x1491 Debug/Flow1.o
 .debug_info    0x00018303     0x1237 Debug/diag_pwm.o
 .debug_info    0x0001953a     0x1b4b Debug/I2C-IO.o
 .debug_info    0x0001b085      0xf92 Debug/chiller_pump.o
 .debug_info    0x0001c017     0x15a8 Debug/console.o
 .debug_info    0x0001d5bf     0x2275 Debug/brew.o
 .debug_info    0x0001f834     0x1123 Debug/parameters.o
 .debug_info    0x00020957     0x1191 Debug/boil_valve.o
 .debug_info    0x00021ae8     0x1cfc Debug/stf_syscalls_minimal.o
 .debug_info    0x000237e4     0x11ba Debug/io_util.o
 .debug_info    0x0002499e      0x54c Debug/core_cm3.o
 .debug_info    0x00024eea      0xef9 Debug/system_stm32f10x.o
 .debug_info    0x00025de3      0xd9d Debug/stm32f10x_it.o
 .debug_info    0x00026b80     0x1743 Debug/stm32f10x_i2c.o
 .debug_info    0x000282c3      0xe22 Debug/misc.o
 .debug_info    0x000290e5     0x14ee Debug/stm32f10x_rcc.o
 .debug_info    0x0002a5d3     0x130c Debug/stm32f10x_gpio.o
 .debug_info    0x0002b8df     0x155e Debug/stm32f10x_spi.o
 .debug_info    0x0002ce3d     0x29fa Debug/stm32f10x_tim.o
 .debug_info    0x0002f837     0x1659 Debug/stm32f10x_usart.o
 .debug_info    0x00030e90     0x1573 Debug/stm32f10x_fsmc.o
 .debug_info    0x00032403     0x1330 Debug/stm32f10x_flash.o
 .debug_info    0x00033733     0x17fb Debug/stm32f10x_adc.o
 .debug_info    0x00034f2e      0xf64 Debug/stm32f10x_exti.o
 .debug_info    0x00035e92      0x2aa Debug/list.o
 .debug_info    0x0003613c      0x7da Debug/queue.o
 .debug_info    0x00036916     0x10ad Debug/tasks.o
 .debug_info    0x000379c3      0x1dc Debug/port.o
 .debug_info    0x00037b9f      0x2b7 Debug/heap_2.o
 .debug_info    0x00037e56      0x1c7 Debug/startup_stm32f10x.o

.debug_line     0x00000000    0x144fc
 .debug_line    0x00000000      0x58a Debug/main.o
 .debug_line    0x0000058a      0x922 Debug/lcd.o
 .debug_line    0x00000eac      0x217 Debug/printf-stdarg.o
 .debug_line    0x000010c3      0x5e2 Debug/touch.o
 .debug_line    0x000016a5      0x63f Debug/serial.o
 .debug_line    0x00001ce4      0x3d1 Debug/adc.o
 .debug_line    0x000020b5      0x471 Debug/leds.o
 .debug_line    0x00002526      0x3d7 Debug/buffer.o
 .debug_line    0x000028fd      0x64b Debug/hlt.o
 .debug_line    0x00002f48      0x4be Debug/mash_pump.o
 .debug_line    0x00003406      0x4c2 Debug/mill.o
 .debug_line    0x000038c8      0x57f Debug/boil.o
 .debug_line    0x00003e47      0x534 Debug/hop_dropper.o
 .debug_line    0x0000437b      0x42e Debug/stir.o
 .debug_line    0x000047a9      0x479 Debug/stirApplet.o
 .debug_line    0x00004c22      0x26e Debug/menu.o
 .debug_line    0x00004e90      0x56a Debug/valves.o
 .debug_line    0x000053fa      0x4bd Debug/diag_temps.o
 .debug_line    0x000058b7      0x620 Debug/crane.o
 .debug_line    0x00005ed7      0x473 Debug/speaker.o
 .debug_line    0x0000634a      0x3f9 Debug/timer.o
 .debug_line    0x00006743      0x6d4 Debug/ds1820.o
 .debug_line    0x00006e17      0x5cc Debug/Flow1.o
 .debug_line    0x000073e3      0x51a Debug/diag_pwm.o
 .debug_line    0x000078fd      0x6ce Debug/I2C-IO.o
 .debug_line    0x00007fcb      0x4ca Debug/chiller_pump.o
 .debug_line    0x00008495      0x4ec Debug/console.o
 .debug_line    0x00008981      0xc4e Debug/brew.o
 .debug_line    0x000095cf      0x5ae Debug/parameters.o
 .debug_line    0x00009b7d      0x5d4 Debug/boil_valve.o
 .debug_line    0x0000a151      0x66c Debug/stf_syscalls_minimal.o
 .debug_line    0x0000a7bd      0x3d4 Debug/io_util.o
 .debug_line    0x0000ab91      0x248 Debug/core_cm3.o
 .debug_line    0x0000add9      0x41f Debug/system_stm32f10x.o
 .debug_line    0x0000b1f8      0x3e8 Debug/stm32f10x_it.o
 .debug_line    0x0000b5e0      0xaf5 Debug/stm32f10x_i2c.o
 .debug_line    0x0000c0d5      0x47d Debug/misc.o
 .debug_line    0x0000c552      0x963 Debug/stm32f10x_rcc.o
 .debug_line    0x0000ceb5      0xa4e Debug/stm32f10x_gpio.o
 .debug_line    0x0000d903      0x99a Debug/stm32f10x_spi.o
 .debug_line    0x0000e29d     0x2302 Debug/stm32f10x_tim.o
 .debug_line    0x0001059f      0xbd2 Debug/stm32f10x_usart.o
 .debug_line    0x00011171      0x9c3 Debug/stm32f10x_fsmc.o
 .debug_line    0x00011b34      0x713 Debug/stm32f10x_flash.o
 .debug_line    0x00012247      0xd52 Debug/stm32f10x_adc.o
 .debug_line    0x00012f99      0x597 Debug/stm32f10x_exti.o
 .debug_line    0x00013530      0x129 Debug/list.o
 .debug_line    0x00013659      0x36b Debug/queue.o
 .debug_line    0x000139c4      0x7c5 Debug/tasks.o
 .debug_line    0x00014189      0x199 Debug/port.o
 .debug_line    0x00014322      0x140 Debug/heap_2.o
 .debug_line    0x00014462       0x9a Debug/startup_stm32f10x.o

.debug_loc      0x00000000    0x18870
 .debug_loc     0x00000000      0x7be Debug/main.o
 .debug_loc     0x000007be      0xd04 Debug/lcd.o
 .debug_loc     0x000014c2      0x1af Debug/printf-stdarg.o
 .debug_loc     0x00001671      0x94c Debug/touch.o
 .debug_loc     0x00001fbd      0x75b Debug/serial.o
 .debug_loc     0x00002718      0x614 Debug/adc.o
 .debug_loc     0x00002d2c      0x6bc Debug/leds.o
 .debug_loc     0x000033e8      0x684 Debug/buffer.o
 .debug_loc     0x00003a6c      0x766 Debug/hlt.o
 .debug_loc     0x000041d2      0x6bc Debug/mash_pump.o
 .debug_loc     0x0000488e      0x6bc Debug/mill.o
 .debug_loc     0x00004f4a      0x6e9 Debug/boil.o
 .debug_loc     0x00005633      0x72c Debug/hop_dropper.o
 .debug_loc     0x00005d5f      0x634 Debug/stir.o
 .debug_loc     0x00006393      0x64c Debug/stirApplet.o
 .debug_loc     0x000069df      0x225 Debug/menu.o
 .debug_loc     0x00006c04      0x6bd Debug/valves.o
 .debug_loc     0x000072c1      0x679 Debug/diag_temps.o
 .debug_loc     0x0000793a      0x6f6 Debug/crane.o
 .debug_loc     0x00008030      0x64c Debug/speaker.o
 .debug_loc     0x0000867c      0x64c Debug/timer.o
 .debug_loc     0x00008cc8      0x94a Debug/ds1820.o
 .debug_loc     0x00009612      0x816 Debug/Flow1.o
 .debug_loc     0x00009e28      0x67a Debug/diag_pwm.o
 .debug_loc     0x0000a4a2      0x764 Debug/I2C-IO.o
 .debug_loc     0x0000ac06      0x6bc Debug/chiller_pump.o
 .debug_loc     0x0000b2c2      0x614 Debug/console.o
 .debug_loc     0x0000b8d6      0xe12 Debug/brew.o
 .debug_loc     0x0000c6e8      0x678 Debug/parameters.o
 .debug_loc     0x0000cd60      0x6f6 Debug/boil_valve.o
 .debug_loc     0x0000d456      0xa5c Debug/stf_syscalls_minimal.o
 .debug_loc     0x0000deb2      0x614 Debug/io_util.o
 .debug_loc     0x0000e4c6      0x3f0 Debug/core_cm3.o
 .debug_loc     0x0000e8b6      0x66c Debug/system_stm32f10x.o
 .debug_loc     0x0000ef22      0x6ac Debug/stm32f10x_it.o
 .debug_loc     0x0000f5ce      0xca4 Debug/stm32f10x_i2c.o
 .debug_loc     0x00010272      0x6bc Debug/misc.o
 .debug_loc     0x0001092e      0xc80 Debug/stm32f10x_rcc.o
 .debug_loc     0x000115ae      0x988 Debug/stm32f10x_gpio.o
 .debug_loc     0x00011f36      0xaac Debug/stm32f10x_spi.o
 .debug_loc     0x000129e2     0x198c Debug/stm32f10x_tim.o
 .debug_loc     0x0001436e      0xbfc Debug/stm32f10x_usart.o
 .debug_loc     0x00014f6a      0x9c0 Debug/stm32f10x_fsmc.o
 .debug_loc     0x0001592a      0xa7c Debug/stm32f10x_flash.o
 .debug_loc     0x000163a6      0xd78 Debug/stm32f10x_adc.o
 .debug_loc     0x0001711e      0x758 Debug/stm32f10x_exti.o
 .debug_loc     0x00017876      0x118 Debug/list.o
 .debug_loc     0x0001798e      0x3f0 Debug/queue.o
 .debug_loc     0x00017d7e      0x859 Debug/tasks.o
 .debug_loc     0x000185d7      0x178 Debug/port.o
 .debug_loc     0x0001874f       0xc8 Debug/heap_2.o
 .debug_loc     0x00018817       0x59 Debug/startup_stm32f10x.o

.debug_pubnames
                0x00000000     0x44fd
 .debug_pubnames
                0x00000000      0x2aa Debug/main.o
 .debug_pubnames
                0x000002aa      0x13f Debug/lcd.o
 .debug_pubnames
                0x000003e9       0x36 Debug/printf-stdarg.o
 .debug_pubnames
                0x0000041f      0x12c Debug/touch.o
 .debug_pubnames
                0x0000054b       0xfa Debug/serial.o
 .debug_pubnames
                0x00000645       0x2c Debug/adc.o
 .debug_pubnames
                0x00000671       0x60 Debug/leds.o
 .debug_pubnames
                0x000006d1       0x4f Debug/buffer.o
 .debug_pubnames
                0x00000720      0x172 Debug/hlt.o
 .debug_pubnames
                0x00000892       0xda Debug/mash_pump.o
 .debug_pubnames
                0x0000096c       0xba Debug/mill.o
 .debug_pubnames
                0x00000a26       0xed Debug/boil.o
 .debug_pubnames
                0x00000b13       0xf7 Debug/hop_dropper.o
 .debug_pubnames
                0x00000c0a       0x4b Debug/stir.o
 .debug_pubnames
                0x00000c55       0x83 Debug/stirApplet.o
 .debug_pubnames
                0x00000cd8       0x53 Debug/menu.o
 .debug_pubnames
                0x00000d2b       0xc5 Debug/valves.o
 .debug_pubnames
                0x00000df0       0xa7 Debug/diag_temps.o
 .debug_pubnames
                0x00000e97      0x114 Debug/crane.o
 .debug_pubnames
                0x00000fab       0x40 Debug/speaker.o
 .debug_pubnames
                0x00000feb       0x66 Debug/timer.o
 .debug_pubnames
                0x00001051       0xc5 Debug/ds1820.o
 .debug_pubnames
                0x00001116      0x2a7 Debug/Flow1.o
 .debug_pubnames
                0x000013bd       0xc8 Debug/diag_pwm.o
 .debug_pubnames
                0x00001485       0x8c Debug/I2C-IO.o
 .debug_pubnames
                0x00001511       0xf9 Debug/chiller_pump.o
 .debug_pubnames
                0x0000160a       0x52 Debug/console.o
 .debug_pubnames
                0x0000165c      0x5db Debug/brew.o
 .debug_pubnames
                0x00001c37       0xdf Debug/parameters.o
 .debug_pubnames
                0x00001d16      0x10d Debug/boil_valve.o
 .debug_pubnames
                0x00001e23      0x12a Debug/stf_syscalls_minimal.o
 .debug_pubnames
                0x00001f4d       0x4a Debug/io_util.o
 .debug_pubnames
                0x00001f97      0x159 Debug/core_cm3.o
 .debug_pubnames
                0x000020f0       0x61 Debug/system_stm32f10x.o
 .debug_pubnames
                0x00002151       0x8f Debug/stm32f10x_it.o
 .debug_pubnames
                0x000021e0      0x2b0 Debug/stm32f10x_i2c.o
 .debug_pubnames
                0x00002490       0x89 Debug/misc.o
 .debug_pubnames
                0x00002519      0x2c4 Debug/stm32f10x_rcc.o
 .debug_pubnames
                0x000027dd      0x19d Debug/stm32f10x_gpio.o
 .debug_pubnames
                0x0000297a      0x1f6 Debug/stm32f10x_spi.o
 .debug_pubnames
                0x00002b70      0x7b0 Debug/stm32f10x_tim.o
 .debug_pubnames
                0x00003320      0x294 Debug/stm32f10x_usart.o
 .debug_pubnames
                0x000035b4      0x1a3 Debug/stm32f10x_fsmc.o
 .debug_pubnames
                0x00003757      0x26e Debug/stm32f10x_flash.o
 .debug_pubnames
                0x000039c5      0x401 Debug/stm32f10x_adc.o
 .debug_pubnames
                0x00003dc6       0xbb Debug/stm32f10x_exti.o
 .debug_pubnames
                0x00003e81       0x71 Debug/list.o
 .debug_pubnames
                0x00003ef2      0x161 Debug/queue.o
 .debug_pubnames
                0x00004053      0x2dd Debug/tasks.o
 .debug_pubnames
                0x00004330      0x101 Debug/port.o
 .debug_pubnames
                0x00004431       0x64 Debug/heap_2.o
 .debug_pubnames
                0x00004495       0x68 Debug/startup_stm32f10x.o

.debug_pubtypes
                0x00000000     0x38b6
 .debug_pubtypes
                0x00000000      0x128 Debug/main.o
 .debug_pubtypes
                0x00000128      0x1a6 Debug/lcd.o
 .debug_pubtypes
                0x000002ce       0x3f Debug/printf-stdarg.o
 .debug_pubtypes
                0x0000030d      0x107 Debug/touch.o
 .debug_pubtypes
                0x00000414      0x286 Debug/serial.o
 .debug_pubtypes
                0x0000069a       0xd3 Debug/adc.o
 .debug_pubtypes
                0x0000076d       0xfd Debug/leds.o
 .debug_pubtypes
                0x0000086a       0xbc Debug/buffer.o
 .debug_pubtypes
                0x00000926      0x167 Debug/hlt.o
 .debug_pubtypes
                0x00000a8d      0x133 Debug/mash_pump.o
 .debug_pubtypes
                0x00000bc0      0x141 Debug/mill.o
 .debug_pubtypes
                0x00000d01      0x1b1 Debug/boil.o
 .debug_pubtypes
                0x00000eb2      0x133 Debug/hop_dropper.o
 .debug_pubtypes
                0x00000fe5       0xe0 Debug/stir.o
 .debug_pubtypes
                0x000010c5       0xf0 Debug/stirApplet.o
 .debug_pubtypes
                0x000011b5       0x28 Debug/menu.o
 .debug_pubtypes
                0x000011dd      0x133 Debug/valves.o
 .debug_pubtypes
                0x00001310       0xe2 Debug/diag_temps.o
 .debug_pubtypes
                0x000013f2      0x140 Debug/crane.o
 .debug_pubtypes
                0x00001532      0x10e Debug/speaker.o
 .debug_pubtypes
                0x00001640      0x157 Debug/timer.o
 .debug_pubtypes
                0x00001797      0x145 Debug/ds1820.o
 .debug_pubtypes
                0x000018dc      0x1af Debug/Flow1.o
 .debug_pubtypes
                0x00001a8b      0x124 Debug/diag_pwm.o
 .debug_pubtypes
                0x00001baf      0x218 Debug/I2C-IO.o
 .debug_pubtypes
                0x00001dc7      0x133 Debug/chiller_pump.o
 .debug_pubtypes
                0x00001efa      0x1a3 Debug/console.o
 .debug_pubtypes
                0x0000209d      0x143 Debug/brew.o
 .debug_pubtypes
                0x000021e0      0x104 Debug/parameters.o
 .debug_pubtypes
                0x000022e4      0x146 Debug/boil_valve.o
 .debug_pubtypes
                0x0000242a      0x24b Debug/stf_syscalls_minimal.o
 .debug_pubtypes
                0x00002675      0x141 Debug/io_util.o
 .debug_pubtypes
                0x000027b6       0x50 Debug/core_cm3.o
 .debug_pubtypes
                0x00002806       0xbd Debug/system_stm32f10x.o
 .debug_pubtypes
                0x000028c3       0xac Debug/stm32f10x_it.o
 .debug_pubtypes
                0x0000296f      0x115 Debug/stm32f10x_i2c.o
 .debug_pubtypes
                0x00002a84       0xc4 Debug/misc.o
 .debug_pubtypes
                0x00002b48      0x101 Debug/stm32f10x_rcc.o
 .debug_pubtypes
                0x00002c49      0x12e Debug/stm32f10x_gpio.o
 .debug_pubtypes
                0x00002d77      0x119 Debug/stm32f10x_spi.o
 .debug_pubtypes
                0x00002e90      0x13b Debug/stm32f10x_tim.o
 .debug_pubtypes
                0x00002fcb      0x12c Debug/stm32f10x_usart.o
 .debug_pubtypes
                0x000030f7      0x1d7 Debug/stm32f10x_fsmc.o
 .debug_pubtypes
                0x000032ce       0xf0 Debug/stm32f10x_flash.o
 .debug_pubtypes
                0x000033be       0xef Debug/stm32f10x_adc.o
 .debug_pubtypes
                0x000034ad      0x11e Debug/stm32f10x_exti.o
 .debug_pubtypes
                0x000035cb       0x7a Debug/list.o
 .debug_pubtypes
                0x00003645       0xd4 Debug/queue.o
 .debug_pubtypes
                0x00003719      0x10c Debug/tasks.o
 .debug_pubtypes
                0x00003825       0x33 Debug/port.o
 .debug_pubtypes
                0x00003858       0x4c Debug/heap_2.o
 .debug_pubtypes
                0x000038a4       0x12 Debug/startup_stm32f10x.o

.debug_aranges  0x00000000     0x41f8
 .debug_aranges
                0x00000000      0x150 Debug/main.o
 .debug_aranges
                0x00000150      0x220 Debug/lcd.o
 .debug_aranges
                0x00000370       0x50 Debug/printf-stdarg.o
 .debug_aranges
                0x000003c0      0x190 Debug/touch.o
 .debug_aranges
                0x00000550      0x140 Debug/serial.o
 .debug_aranges
                0x00000690      0x110 Debug/adc.o
 .debug_aranges
                0x000007a0      0x128 Debug/leds.o
 .debug_aranges
                0x000008c8      0x120 Debug/buffer.o
 .debug_aranges
                0x000009e8      0x140 Debug/hlt.o
 .debug_aranges
                0x00000b28      0x128 Debug/mash_pump.o
 .debug_aranges
                0x00000c50      0x128 Debug/mill.o
 .debug_aranges
                0x00000d78      0x130 Debug/boil.o
 .debug_aranges
                0x00000ea8      0x138 Debug/hop_dropper.o
 .debug_aranges
                0x00000fe0      0x118 Debug/stir.o
 .debug_aranges
                0x000010f8      0x118 Debug/stirApplet.o
 .debug_aranges
                0x00001210       0x68 Debug/menu.o
 .debug_aranges
                0x00001278      0x128 Debug/valves.o
 .debug_aranges
                0x000013a0      0x120 Debug/diag_temps.o
 .debug_aranges
                0x000014c0      0x130 Debug/crane.o
 .debug_aranges
                0x000015f0      0x118 Debug/speaker.o
 .debug_aranges
                0x00001708      0x118 Debug/timer.o
 .debug_aranges
                0x00001820      0x188 Debug/ds1820.o
 .debug_aranges
                0x000019a8      0x160 Debug/Flow1.o
 .debug_aranges
                0x00001b08      0x120 Debug/diag_pwm.o
 .debug_aranges
                0x00001c28      0x140 Debug/I2C-IO.o
 .debug_aranges
                0x00001d68      0x128 Debug/chiller_pump.o
 .debug_aranges
                0x00001e90      0x110 Debug/console.o
 .debug_aranges
                0x00001fa0      0x240 Debug/brew.o
 .debug_aranges
                0x000021e0      0x120 Debug/parameters.o
 .debug_aranges
                0x00002300      0x130 Debug/boil_valve.o
 .debug_aranges
                0x00002430      0x1b0 Debug/stf_syscalls_minimal.o
 .debug_aranges
                0x000025e0      0x110 Debug/io_util.o
 .debug_aranges
                0x000026f0       0xc8 Debug/core_cm3.o
 .debug_aranges
                0x000027b8      0x120 Debug/system_stm32f10x.o
 .debug_aranges
                0x000028d8      0x130 Debug/stm32f10x_it.o
 .debug_aranges
                0x00002a08      0x200 Debug/stm32f10x_i2c.o
 .debug_aranges
                0x00002c08      0x128 Debug/misc.o
 .debug_aranges
                0x00002d30      0x200 Debug/stm32f10x_rcc.o
 .debug_aranges
                0x00002f30      0x190 Debug/stm32f10x_gpio.o
 .debug_aranges
                0x000030c0      0x1b8 Debug/stm32f10x_spi.o
 .debug_aranges
                0x00003278      0x3d8 Debug/stm32f10x_tim.o
 .debug_aranges
                0x00003650      0x1e8 Debug/stm32f10x_usart.o
 .debug_aranges
                0x00003838      0x198 Debug/stm32f10x_fsmc.o
 .debug_aranges
                0x000039d0      0x1b8 Debug/stm32f10x_flash.o
 .debug_aranges
                0x00003b88      0x220 Debug/stm32f10x_adc.o
 .debug_aranges
                0x00003da8      0x140 Debug/stm32f10x_exti.o
 .debug_aranges
                0x00003ee8       0x40 Debug/list.o
 .debug_aranges
                0x00003f28       0xa8 Debug/queue.o
 .debug_aranges
                0x00003fd0      0x150 Debug/tasks.o
 .debug_aranges
                0x00004120       0x70 Debug/port.o
 .debug_aranges
                0x00004190       0x38 Debug/heap_2.o
 .debug_aranges
                0x000041c8       0x30 Debug/startup_stm32f10x.o

.debug_ranges   0x00000000     0x3eb8
 .debug_ranges  0x00000000      0x140 Debug/main.o
 .debug_ranges  0x00000140      0x210 Debug/lcd.o
 .debug_ranges  0x00000350       0x40 Debug/printf-stdarg.o
 .debug_ranges  0x00000390      0x180 Debug/touch.o
 .debug_ranges  0x00000510      0x130 Debug/serial.o
 .debug_ranges  0x00000640      0x100 Debug/adc.o
 .debug_ranges  0x00000740      0x118 Debug/leds.o
 .debug_ranges  0x00000858      0x110 Debug/buffer.o
 .debug_ranges  0x00000968      0x130 Debug/hlt.o
 .debug_ranges  0x00000a98      0x118 Debug/mash_pump.o
 .debug_ranges  0x00000bb0      0x118 Debug/mill.o
 .debug_ranges  0x00000cc8      0x120 Debug/boil.o
 .debug_ranges  0x00000de8      0x128 Debug/hop_dropper.o
 .debug_ranges  0x00000f10      0x108 Debug/stir.o
 .debug_ranges  0x00001018      0x108 Debug/stirApplet.o
 .debug_ranges  0x00001120       0x58 Debug/menu.o
 .debug_ranges  0x00001178      0x118 Debug/valves.o
 .debug_ranges  0x00001290      0x110 Debug/diag_temps.o
 .debug_ranges  0x000013a0      0x120 Debug/crane.o
 .debug_ranges  0x000014c0      0x108 Debug/speaker.o
 .debug_ranges  0x000015c8      0x108 Debug/timer.o
 .debug_ranges  0x000016d0      0x178 Debug/ds1820.o
 .debug_ranges  0x00001848      0x150 Debug/Flow1.o
 .debug_ranges  0x00001998      0x110 Debug/diag_pwm.o
 .debug_ranges  0x00001aa8      0x130 Debug/I2C-IO.o
 .debug_ranges  0x00001bd8      0x118 Debug/chiller_pump.o
 .debug_ranges  0x00001cf0      0x100 Debug/console.o
 .debug_ranges  0x00001df0      0x230 Debug/brew.o
 .debug_ranges  0x00002020      0x110 Debug/parameters.o
 .debug_ranges  0x00002130      0x120 Debug/boil_valve.o
 .debug_ranges  0x00002250      0x1a0 Debug/stf_syscalls_minimal.o
 .debug_ranges  0x000023f0      0x100 Debug/io_util.o
 .debug_ranges  0x000024f0       0xb8 Debug/core_cm3.o
 .debug_ranges  0x000025a8      0x110 Debug/system_stm32f10x.o
 .debug_ranges  0x000026b8      0x120 Debug/stm32f10x_it.o
 .debug_ranges  0x000027d8      0x1f0 Debug/stm32f10x_i2c.o
 .debug_ranges  0x000029c8      0x118 Debug/misc.o
 .debug_ranges  0x00002ae0      0x1f0 Debug/stm32f10x_rcc.o
 .debug_ranges  0x00002cd0      0x180 Debug/stm32f10x_gpio.o
 .debug_ranges  0x00002e50      0x1a8 Debug/stm32f10x_spi.o
 .debug_ranges  0x00002ff8      0x3c8 Debug/stm32f10x_tim.o
 .debug_ranges  0x000033c0      0x1d8 Debug/stm32f10x_usart.o
 .debug_ranges  0x00003598      0x188 Debug/stm32f10x_fsmc.o
 .debug_ranges  0x00003720      0x1a8 Debug/stm32f10x_flash.o
 .debug_ranges  0x000038c8      0x210 Debug/stm32f10x_adc.o
 .debug_ranges  0x00003ad8      0x130 Debug/stm32f10x_exti.o
 .debug_ranges  0x00003c08       0x30 Debug/list.o
 .debug_ranges  0x00003c38       0x98 Debug/queue.o
 .debug_ranges  0x00003cd0      0x140 Debug/tasks.o
 .debug_ranges  0x00003e10       0x60 Debug/port.o
 .debug_ranges  0x00003e70       0x28 Debug/heap_2.o
 .debug_ranges  0x00003e98       0x20 Debug/startup_stm32f10x.o

.debug_str      0x00000000     0x75f4
 .debug_str     0x00000000      0xd2a Debug/main.o
                                0xde3 (size before relaxing)
 .debug_str     0x00000d2a      0x499 Debug/lcd.o
                                0xe6c (size before relaxing)
 .debug_str     0x000011c3       0x68 Debug/printf-stdarg.o
                                0x10e (size before relaxing)
 .debug_str     0x0000122b       0xed Debug/touch.o
                                0xa89 (size before relaxing)
 .debug_str     0x00001318      0x60d Debug/serial.o
                               0x1049 (size before relaxing)
 .debug_str     0x00001925      0x107 Debug/adc.o
                                0x96f (size before relaxing)
 .debug_str     0x00001a2c       0x74 Debug/leds.o
                                0xa06 (size before relaxing)
 .debug_str     0x00001aa0       0x4a Debug/buffer.o
                                0x8ba (size before relaxing)
 .debug_str     0x00001aea      0x387 Debug/hlt.o
                                0xdcd (size before relaxing)
 .debug_str     0x00001e71       0xb0 Debug/mash_pump.o
                                0xa8a (size before relaxing)
 .debug_str     0x00001f21       0x8d Debug/mill.o
                                0xa89 (size before relaxing)
 .debug_str     0x00001fae      0x2d5 Debug/boil.o
                                0xdc8 (size before relaxing)
 .debug_str     0x00002283      0x105 Debug/hop_dropper.o
                                0xaff (size before relaxing)
 .debug_str     0x00002388       0x66 Debug/stir.o
                                0x8e9 (size before relaxing)
 .debug_str     0x000023ee       0x4e Debug/stirApplet.o
                                0x93d (size before relaxing)
 .debug_str     0x0000243c      0x129 Debug/menu.o
                                0x265 (size before relaxing)
 .debug_str     0x00002565      0x15d Debug/valves.o
                                0xb50 (size before relaxing)
 .debug_str     0x000026c2       0xaf Debug/diag_temps.o
                                0x977 (size before relaxing)
 .debug_str     0x00002771       0xed Debug/crane.o
                                0xb71 (size before relaxing)
 .debug_str     0x0000285e       0x34 Debug/speaker.o
                                0x9eb (size before relaxing)
 .debug_str     0x00002892       0x52 Debug/timer.o
                                0xc81 (size before relaxing)
 .debug_str     0x000028e4      0x1b1 Debug/ds1820.o
                                0xd24 (size before relaxing)
 .debug_str     0x00002a95      0x319 Debug/Flow1.o
                                0xde2 (size before relaxing)
 .debug_str     0x00002dae       0xb9 Debug/diag_pwm.o
                                0xb8b (size before relaxing)
 .debug_str     0x00002e67      0x1b2 Debug/I2C-IO.o
                                0xf52 (size before relaxing)
 .debug_str     0x00003019       0xd2 Debug/chiller_pump.o
                                0xaac (size before relaxing)
 .debug_str     0x000030eb       0x49 Debug/console.o
                                0xc7e (size before relaxing)
 .debug_str     0x00003134      0x8ee Debug/brew.o
                               0x1453 (size before relaxing)
 .debug_str     0x00003a22       0xbd Debug/parameters.o
                                0xbb6 (size before relaxing)
 .debug_str     0x00003adf       0xb6 Debug/boil_valve.o
                                0xba6 (size before relaxing)
 .debug_str     0x00003b95      0x21c Debug/stf_syscalls_minimal.o
                                0xea2 (size before relaxing)
 .debug_str     0x00003db1       0x42 Debug/io_util.o
                                0xbc4 (size before relaxing)
 .debug_str     0x00003df3      0x12e Debug/core_cm3.o
                                0x245 (size before relaxing)
 .debug_str     0x00003f21       0xed Debug/system_stm32f10x.o
                                0x94e (size before relaxing)
 .debug_str     0x0000400e       0x78 Debug/stm32f10x_it.o
                                0x8d2 (size before relaxing)
 .debug_str     0x00004086      0x377 Debug/stm32f10x_i2c.o
                                0xcd1 (size before relaxing)
 .debug_str     0x000043fd       0xea Debug/misc.o
                                0x9cd (size before relaxing)
 .debug_str     0x000044e7      0x351 Debug/stm32f10x_rcc.o
                                0xce9 (size before relaxing)
 .debug_str     0x00004838      0x23f Debug/stm32f10x_gpio.o
                                0xbde (size before relaxing)
 .debug_str     0x00004a77      0x356 Debug/stm32f10x_spi.o
                                0xc90 (size before relaxing)
 .debug_str     0x00004dcd      0x9ac Debug/stm32f10x_tim.o
                               0x1470 (size before relaxing)
 .debug_str     0x00005779      0x341 Debug/stm32f10x_usart.o
                                0xd23 (size before relaxing)
 .debug_str     0x00005aba      0x3cd Debug/stm32f10x_fsmc.o
                                0xe3b (size before relaxing)
 .debug_str     0x00005e87      0x36f Debug/stm32f10x_flash.o
                                0xc47 (size before relaxing)
 .debug_str     0x000061f6      0x43e Debug/stm32f10x_adc.o
                                0xdca (size before relaxing)
 .debug_str     0x00006634       0xc1 Debug/stm32f10x_exti.o
                                0xa3e (size before relaxing)
 .debug_str     0x000066f5      0x135 Debug/list.o
                                0x220 (size before relaxing)
 .debug_str     0x0000682a      0x347 Debug/queue.o
                                0x4ef (size before relaxing)
 .debug_str     0x00006b71      0x7ac Debug/tasks.o
                                0x9e8 (size before relaxing)
 .debug_str     0x0000731d      0x127 Debug/port.o
                                0x1f0 (size before relaxing)
 .debug_str     0x00007444      0x117 Debug/heap_2.o
                                0x24b (size before relaxing)
 .debug_str     0x0000755b       0x99 Debug/startup_stm32f10x.o
                                0x17f (size before relaxing)

.comment        0x00000000       0x2a
 .comment       0x00000000       0x2a Debug/main.o
                                 0x2b (size before relaxing)
 .comment       0x00000000       0x2b Debug/lcd.o
 .comment       0x00000000       0x2b Debug/printf-stdarg.o
 .comment       0x00000000       0x2b Debug/touch.o
 .comment       0x00000000       0x2b Debug/serial.o
 .comment       0x00000000       0x2b Debug/adc.o
 .comment       0x00000000       0x2b Debug/leds.o
 .comment       0x00000000       0x2b Debug/buffer.o
 .comment       0x00000000       0x2b Debug/hlt.o
 .comment       0x00000000       0x2b Debug/mash_pump.o
 .comment       0x00000000       0x2b Debug/mill.o
 .comment       0x00000000       0x2b Debug/boil.o
 .comment       0x00000000       0x2b Debug/hop_dropper.o
 .comment       0x00000000       0x2b Debug/stir.o
 .comment       0x00000000       0x2b Debug/stirApplet.o
 .comment       0x00000000       0x2b Debug/menu.o
 .comment       0x00000000       0x2b Debug/valves.o
 .comment       0x00000000       0x2b Debug/diag_temps.o
 .comment       0x00000000       0x2b Debug/crane.o
 .comment       0x00000000       0x2b Debug/speaker.o
 .comment       0x00000000       0x2b Debug/timer.o
 .comment       0x00000000       0x2b Debug/ds1820.o
 .comment       0x00000000       0x2b Debug/Flow1.o
 .comment       0x00000000       0x2b Debug/diag_pwm.o
 .comment       0x00000000       0x2b Debug/I2C-IO.o
 .comment       0x00000000       0x2b Debug/chiller_pump.o
 .comment       0x00000000       0x2b Debug/console.o
 .comment       0x00000000       0x2b Debug/brew.o
 .comment       0x00000000       0x2b Debug/parameters.o
 .comment       0x00000000       0x2b Debug/boil_valve.o
 .comment       0x00000000       0x2b Debug/stf_syscalls_minimal.o
 .comment       0x00000000       0x2b Debug/io_util.o
 .comment       0x00000000       0x2b Debug/core_cm3.o
 .comment       0x00000000       0x2b Debug/system_stm32f10x.o
 .comment       0x00000000       0x2b Debug/stm32f10x_it.o
 .comment       0x00000000       0x2b Debug/stm32f10x_i2c.o
 .comment       0x00000000       0x2b Debug/misc.o
 .comment       0x00000000       0x2b Debug/stm32f10x_rcc.o
 .comment       0x00000000       0x2b Debug/stm32f10x_gpio.o
 .comment       0x00000000       0x2b Debug/stm32f10x_spi.o
 .comment       0x00000000       0x2b Debug/stm32f10x_tim.o
 .comment       0x00000000       0x2b Debug/stm32f10x_usart.o
 .comment       0x00000000       0x2b Debug/stm32f10x_fsmc.o
 .comment       0x00000000       0x2b Debug/stm32f10x_flash.o
 .comment       0x00000000       0x2b Debug/stm32f10x_adc.o
 .comment       0x00000000       0x2b Debug/stm32f10x_exti.o
 .comment       0x00000000       0x2b Debug/list.o
 .comment       0x00000000       0x2b Debug/queue.o
 .comment       0x00000000       0x2b Debug/tasks.o
 .comment       0x00000000       0x2b Debug/port.o
 .comment       0x00000000       0x2b Debug/heap_2.o
 .comment       0x00000000       0x2b Debug/startup_stm32f10x.o

.ARM.attributes
                0x00000000       0x31
 .ARM.attributes
                0x00000000       0x31 Debug/main.o
 .ARM.attributes
                0x00000031       0x31 Debug/lcd.o
 .ARM.attributes
                0x00000062       0x31 Debug/printf-stdarg.o
 .ARM.attributes
                0x00000093       0x31 Debug/touch.o
 .ARM.attributes
                0x000000c4       0x31 Debug/serial.o
 .ARM.attributes
                0x000000f5       0x31 Debug/adc.o
 .ARM.attributes
                0x00000126       0x31 Debug/leds.o
 .ARM.attributes
                0x00000157       0x31 Debug/buffer.o
 .ARM.attributes
                0x00000188       0x31 Debug/hlt.o
 .ARM.attributes
                0x000001b9       0x31 Debug/mash_pump.o
 .ARM.attributes
                0x000001ea       0x31 Debug/mill.o
 .ARM.attributes
                0x0000021b       0x31 Debug/boil.o
 .ARM.attributes
                0x0000024c       0x31 Debug/hop_dropper.o
 .ARM.attributes
                0x0000027d       0x31 Debug/stir.o
 .ARM.attributes
                0x000002ae       0x31 Debug/stirApplet.o
 .ARM.attributes
                0x000002df       0x31 Debug/menu.o
 .ARM.attributes
                0x00000310       0x31 Debug/valves.o
 .ARM.attributes
                0x00000341       0x31 Debug/diag_temps.o
 .ARM.attributes
                0x00000372       0x31 Debug/crane.o
 .ARM.attributes
                0x000003a3       0x31 Debug/speaker.o
 .ARM.attributes
                0x000003d4       0x31 Debug/timer.o
 .ARM.attributes
                0x00000405       0x31 Debug/ds1820.o
 .ARM.attributes
                0x00000436       0x31 Debug/Flow1.o
 .ARM.attributes
                0x00000467       0x31 Debug/diag_pwm.o
 .ARM.attributes
                0x00000498       0x31 Debug/I2C-IO.o
 .ARM.attributes
                0x000004c9       0x31 Debug/chiller_pump.o
 .ARM.attributes
                0x000004fa       0x31 Debug/console.o
 .ARM.attributes
                0x0000052b       0x31 Debug/brew.o
 .ARM.attributes
                0x0000055c       0x31 Debug/parameters.o
 .ARM.attributes
                0x0000058d       0x31 Debug/boil_valve.o
 .ARM.attributes
                0x000005be       0x31 Debug/stf_syscalls_minimal.o
 .ARM.attributes
                0x000005ef       0x31 Debug/io_util.o
 .ARM.attributes
                0x00000620       0x31 Debug/core_cm3.o
 .ARM.attributes
                0x00000651       0x31 Debug/system_stm32f10x.o
 .ARM.attributes
                0x00000682       0x31 Debug/stm32f10x_it.o
 .ARM.attributes
                0x000006b3       0x31 Debug/stm32f10x_i2c.o
 .ARM.attributes
                0x000006e4       0x31 Debug/misc.o
 .ARM.attributes
                0x00000715       0x31 Debug/stm32f10x_rcc.o
 .ARM.attributes
                0x00000746       0x31 Debug/stm32f10x_gpio.o
 .ARM.attributes
                0x00000777       0x31 Debug/stm32f10x_spi.o
 .ARM.attributes
                0x000007a8       0x31 Debug/stm32f10x_tim.o
 .ARM.attributes
                0x000007d9       0x31 Debug/stm32f10x_usart.o
 .ARM.attributes
                0x0000080a       0x31 Debug/stm32f10x_fsmc.o
 .ARM.attributes
                0x0000083b       0x31 Debug/stm32f10x_flash.o
 .ARM.attributes
                0x0000086c       0x31 Debug/stm32f10x_adc.o
 .ARM.attributes
                0x0000089d       0x31 Debug/stm32f10x_exti.o
 .ARM.attributes
                0x000008ce       0x31 Debug/list.o
 .ARM.attributes
                0x000008ff       0x31 Debug/queue.o
 .ARM.attributes
                0x00000930       0x31 Debug/tasks.o
 .ARM.attributes
                0x00000961       0x31 Debug/port.o
 .ARM.attributes
                0x00000992       0x31 Debug/heap_2.o
 .ARM.attributes
                0x000009c3       0x31 Debug/startup_stm32f10x.o
 .ARM.attributes
                0x000009f4       0x29 /usr/local/CodeSourcery/bin/../lib/gcc/arm-none-eabi/4.5.2/../../../../arm-none-eabi/lib/thumb2/libm.a(lib_a-s_floor.o)
 .ARM.attributes
                0x00000a1d       0x1b /usr/local/CodeSourcery/bin/../lib/gcc/arm-none-eabi/4.5.2/thumb2/libgcc.a(_arm_addsubdf3.o)
 .ARM.attributes
                0x00000a38       0x1b /usr/local/CodeSourcery/bin/../lib/gcc/arm-none-eabi/4.5.2/thumb2/libgcc.a(_arm_muldivdf3.o)
 .ARM.attributes
                0x00000a53       0x1b /usr/local/CodeSourcery/bin/../lib/gcc/arm-none-eabi/4.5.2/thumb2/libgcc.a(_arm_cmpdf2.o)
 .ARM.attributes
                0x00000a6e       0x1b /usr/local/CodeSourcery/bin/../lib/gcc/arm-none-eabi/4.5.2/thumb2/libgcc.a(_arm_fixunsdfsi.o)
 .ARM.attributes
                0x00000a89       0x1b /usr/local/CodeSourcery/bin/../lib/gcc/arm-none-eabi/4.5.2/thumb2/libgcc.a(_arm_truncdfsf2.o)
 .ARM.attributes
                0x00000aa4       0x1b /usr/local/CodeSourcery/bin/../lib/gcc/arm-none-eabi/4.5.2/thumb2/libgcc.a(_arm_addsubsf3.o)
 .ARM.attributes
                0x00000abf       0x1b /usr/local/CodeSourcery/bin/../lib/gcc/arm-none-eabi/4.5.2/thumb2/libgcc.a(_arm_muldivsf3.o)
 .ARM.attributes
                0x00000ada       0x1b /usr/local/CodeSourcery/bin/../lib/gcc/arm-none-eabi/4.5.2/thumb2/libgcc.a(_arm_cmpsf2.o)
 .ARM.attributes
                0x00000af5       0x1b /usr/local/CodeSourcery/bin/../lib/gcc/arm-none-eabi/4.5.2/thumb2/libgcc.a(_arm_fixsfsi.o)
 .ARM.attributes
                0x00000b10       0x29 /usr/local/CodeSourcery/bin/../lib/gcc/arm-none-eabi/4.5.2/../../../../arm-none-eabi/lib/thumb2/libc.a(lib_a-atof.o)
 .ARM.attributes
                0x00000b39       0x29 /usr/local/CodeSourcery/bin/../lib/gcc/arm-none-eabi/4.5.2/../../../../arm-none-eabi/lib/thumb2/libc.a(lib_a-atoi.o)
 .ARM.attributes
                0x00000b62       0x29 /usr/local/CodeSourcery/bin/../lib/gcc/arm-none-eabi/4.5.2/../../../../arm-none-eabi/lib/thumb2/libc.a(lib_a-fflush.o)
 .ARM.attributes
                0x00000b8b       0x29 /usr/local/CodeSourcery/bin/../lib/gcc/arm-none-eabi/4.5.2/../../../../arm-none-eabi/lib/thumb2/libc.a(lib_a-findfp.o)
 .ARM.attributes
                0x00000bb4       0x29 /usr/local/CodeSourcery/bin/../lib/gcc/arm-none-eabi/4.5.2/../../../../arm-none-eabi/lib/thumb2/libc.a(lib_a-fwalk.o)
 .ARM.attributes
                0x00000bdd       0x29 /usr/local/CodeSourcery/bin/../lib/gcc/arm-none-eabi/4.5.2/../../../../arm-none-eabi/lib/thumb2/libc.a(lib_a-impure.o)
 .ARM.attributes
                0x00000c06       0x29 /usr/local/CodeSourcery/bin/../lib/gcc/arm-none-eabi/4.5.2/../../../../arm-none-eabi/lib/thumb2/libc.a(lib_a-malloc.o)
 .ARM.attributes
                0x00000c2f       0x29 /usr/local/CodeSourcery/bin/../lib/gcc/arm-none-eabi/4.5.2/../../../../arm-none-eabi/lib/thumb2/libc.a(lib_a-memcmp.o)
 .ARM.attributes
                0x00000c58       0x29 /usr/local/CodeSourcery/bin/../lib/gcc/arm-none-eabi/4.5.2/../../../../arm-none-eabi/lib/thumb2/libc.a(lib_a-memcpy.o)
 .ARM.attributes
                0x00000c81       0x29 /usr/local/CodeSourcery/bin/../lib/gcc/arm-none-eabi/4.5.2/../../../../arm-none-eabi/lib/thumb2/libc.a(lib_a-memset.o)
 .ARM.attributes
                0x00000caa       0x29 /usr/local/CodeSourcery/bin/../lib/gcc/arm-none-eabi/4.5.2/../../../../arm-none-eabi/lib/thumb2/libc.a(lib_a-putchar.o)
 .ARM.attributes
                0x00000cd3       0x29 /usr/local/CodeSourcery/bin/../lib/gcc/arm-none-eabi/4.5.2/../../../../arm-none-eabi/lib/thumb2/libc.a(lib_a-puts.o)
 .ARM.attributes
                0x00000cfc       0x29 /usr/local/CodeSourcery/bin/../lib/gcc/arm-none-eabi/4.5.2/../../../../arm-none-eabi/lib/thumb2/libc.a(lib_a-reent.o)
 .ARM.attributes
                0x00000d25       0x29 /usr/local/CodeSourcery/bin/../lib/gcc/arm-none-eabi/4.5.2/../../../../arm-none-eabi/lib/thumb2/libc.a(lib_a-stdio.o)
 .ARM.attributes
                0x00000d4e       0x29 /usr/local/CodeSourcery/bin/../lib/gcc/arm-none-eabi/4.5.2/../../../../arm-none-eabi/lib/thumb2/libc.a(lib_a-strcat.o)
 .ARM.attributes
                0x00000d77       0x29 /usr/local/CodeSourcery/bin/../lib/gcc/arm-none-eabi/4.5.2/../../../../arm-none-eabi/lib/thumb2/libc.a(lib_a-strcmp.o)
 .ARM.attributes
                0x00000da0       0x29 /usr/local/CodeSourcery/bin/../lib/gcc/arm-none-eabi/4.5.2/../../../../arm-none-eabi/lib/thumb2/libc.a(lib_a-strcpy.o)
 .ARM.attributes
                0x00000dc9       0x29 /usr/local/CodeSourcery/bin/../lib/gcc/arm-none-eabi/4.5.2/../../../../arm-none-eabi/lib/thumb2/libc.a(lib_a-strlen.o)
 .ARM.attributes
                0x00000df2       0x29 /usr/local/CodeSourcery/bin/../lib/gcc/arm-none-eabi/4.5.2/../../../../arm-none-eabi/lib/thumb2/libc.a(lib_a-strncpy.o)
 .ARM.attributes
                0x00000e1b       0x29 /usr/local/CodeSourcery/bin/../lib/gcc/arm-none-eabi/4.5.2/../../../../arm-none-eabi/lib/thumb2/libc.a(lib_a-strtod.o)
 .ARM.attributes
                0x00000e44       0x29 /usr/local/CodeSourcery/bin/../lib/gcc/arm-none-eabi/4.5.2/../../../../arm-none-eabi/lib/thumb2/libc.a(lib_a-strtol.o)
 .ARM.attributes
                0x00000e6d       0x29 /usr/local/CodeSourcery/bin/../lib/gcc/arm-none-eabi/4.5.2/../../../../arm-none-eabi/lib/thumb2/libc.a(lib_a-vsnprintf.o)
 .ARM.attributes
                0x00000e96       0x29 /usr/local/CodeSourcery/bin/../lib/gcc/arm-none-eabi/4.5.2/../../../../arm-none-eabi/lib/thumb2/libc.a(lib_a-writer.o)
 .ARM.attributes
                0x00000ebf       0x29 /usr/local/CodeSourcery/bin/../lib/gcc/arm-none-eabi/4.5.2/../../../../arm-none-eabi/lib/thumb2/libc.a(lib_a-closer.o)
 .ARM.attributes
                0x00000ee8       0x29 /usr/local/CodeSourcery/bin/../lib/gcc/arm-none-eabi/4.5.2/../../../../arm-none-eabi/lib/thumb2/libc.a(lib_a-ctype_.o)
 .ARM.attributes
                0x00000f11       0x29 /usr/local/CodeSourcery/bin/../lib/gcc/arm-none-eabi/4.5.2/../../../../arm-none-eabi/lib/thumb2/libc.a(lib_a-fclose.o)
 .ARM.attributes
                0x00000f3a       0x29 /usr/local/CodeSourcery/bin/../lib/gcc/arm-none-eabi/4.5.2/../../../../arm-none-eabi/lib/thumb2/libc.a(lib_a-fvwrite.o)
 .ARM.attributes
                0x00000f63       0x29 /usr/local/CodeSourcery/bin/../lib/gcc/arm-none-eabi/4.5.2/../../../../arm-none-eabi/lib/thumb2/libc.a(lib_a-gdtoa-gethex.o)
 .ARM.attributes
                0x00000f8c       0x29 /usr/local/CodeSourcery/bin/../lib/gcc/arm-none-eabi/4.5.2/../../../../arm-none-eabi/lib/thumb2/libc.a(lib_a-gdtoa-hexnan.o)
 .ARM.attributes
                0x00000fb5       0x29 /usr/local/CodeSourcery/bin/../lib/gcc/arm-none-eabi/4.5.2/../../../../arm-none-eabi/lib/thumb2/libc.a(lib_a-locale.o)
 .ARM.attributes
                0x00000fde       0x29 /usr/local/CodeSourcery/bin/../lib/gcc/arm-none-eabi/4.5.2/../../../../arm-none-eabi/lib/thumb2/libc.a(lib_a-lseekr.o)
 .ARM.attributes
                0x00001007       0x29 /usr/local/CodeSourcery/bin/../lib/gcc/arm-none-eabi/4.5.2/../../../../arm-none-eabi/lib/thumb2/libc.a(lib_a-memchr.o)
 .ARM.attributes
                0x00001030       0x29 /usr/local/CodeSourcery/bin/../lib/gcc/arm-none-eabi/4.5.2/../../../../arm-none-eabi/lib/thumb2/libc.a(lib_a-memmove.o)
 .ARM.attributes
                0x00001059       0x29 /usr/local/CodeSourcery/bin/../lib/gcc/arm-none-eabi/4.5.2/../../../../arm-none-eabi/lib/thumb2/libc.a(lib_a-mprec.o)
 .ARM.attributes
                0x00001082       0x29 /usr/local/CodeSourcery/bin/../lib/gcc/arm-none-eabi/4.5.2/../../../../arm-none-eabi/lib/thumb2/libc.a(lib_a-putc.o)
 .ARM.attributes
                0x000010ab       0x29 /usr/local/CodeSourcery/bin/../lib/gcc/arm-none-eabi/4.5.2/../../../../arm-none-eabi/lib/thumb2/libc.a(lib_a-readr.o)
 .ARM.attributes
                0x000010d4       0x29 /usr/local/CodeSourcery/bin/../lib/gcc/arm-none-eabi/4.5.2/../../../../arm-none-eabi/lib/thumb2/libc.a(lib_a-strncmp.o)
 .ARM.attributes
                0x000010fd       0x29 /usr/local/CodeSourcery/bin/../lib/gcc/arm-none-eabi/4.5.2/../../../../arm-none-eabi/lib/thumb2/libc.a(lib_a-svfprintf.o)
 .ARM.attributes
                0x00001126       0x29 /usr/local/CodeSourcery/bin/../lib/gcc/arm-none-eabi/4.5.2/../../../../arm-none-eabi/lib/thumb2/libc.a(lib_a-wbuf.o)
 .ARM.attributes
                0x0000114f       0x29 /usr/local/CodeSourcery/bin/../lib/gcc/arm-none-eabi/4.5.2/../../../../arm-none-eabi/lib/thumb2/libc.a(lib_a-wsetup.o)
 .ARM.attributes
                0x00001178       0x29 /usr/local/CodeSourcery/bin/../lib/gcc/arm-none-eabi/4.5.2/../../../../arm-none-eabi/lib/thumb2/libc.a(lib_a-dtoa.o)
 .ARM.attributes
                0x000011a1       0x29 /usr/local/CodeSourcery/bin/../lib/gcc/arm-none-eabi/4.5.2/../../../../arm-none-eabi/lib/thumb2/libc.a(lib_a-makebuf.o)
 .ARM.attributes
                0x000011ca       0x29 /usr/local/CodeSourcery/bin/../lib/gcc/arm-none-eabi/4.5.2/../../../../arm-none-eabi/lib/thumb2/libc.a(lib_a-s_fpclassify.o)
 .ARM.attributes
                0x000011f3       0x29 /usr/local/CodeSourcery/bin/../lib/gcc/arm-none-eabi/4.5.2/../../../../arm-none-eabi/lib/thumb2/libc.a(lib_a-svfiprintf.o)
 .ARM.attributes
                0x0000121c       0x29 /usr/local/CodeSourcery/bin/../lib/gcc/arm-none-eabi/4.5.2/../../../../arm-none-eabi/lib/thumb2/libc.a(lib_a-fstatr.o)
 .ARM.attributes
                0x00001245       0x29 /usr/local/CodeSourcery/bin/../lib/gcc/arm-none-eabi/4.5.2/../../../../arm-none-eabi/lib/thumb2/libc.a(lib_a-isattyr.o)
 .ARM.attributes
                0x0000126e       0x1b /usr/local/CodeSourcery/bin/../lib/gcc/arm-none-eabi/4.5.2/thumb2/libgcc.a(_udivsi3.o)
 .ARM.attributes
                0x00001289       0x1b /usr/local/CodeSourcery/bin/../lib/gcc/arm-none-eabi/4.5.2/thumb2/libgcc.a(_dvmd_tls.o)
 .ARM.attributes
                0x000012a4       0x1b /usr/local/CodeSourcery/bin/../lib/gcc/arm-none-eabi/4.5.2/thumb2/libgcc.a(_arm_fixdfsi.o)
 .ARM.attributes
                0x000012bf       0x1b /usr/local/CodeSourcery/bin/../lib/gcc/arm-none-eabi/4.5.2/thumb2/libgcc.a(_aeabi_uldivmod.o)
 .ARM.attributes
                0x000012da       0x29 /usr/local/CodeSourcery/bin/../lib/gcc/arm-none-eabi/4.5.2/thumb2/libgcc.a(bpabi.o)
 .ARM.attributes
                0x00001303       0x29 /usr/local/CodeSourcery/bin/../lib/gcc/arm-none-eabi/4.5.2/thumb2/libgcc.a(_divdi3.o)
 .ARM.attributes
                0x0000132c       0x29 /usr/local/CodeSourcery/bin/../lib/gcc/arm-none-eabi/4.5.2/thumb2/libgcc.a(_udivdi3.o)

.debug_frame    0x00000000     0xe728
 .debug_frame   0x00000000      0x43c Debug/main.o
 .debug_frame   0x0000043c      0x740 Debug/lcd.o
 .debug_frame   0x00000b7c      0x11c Debug/printf-stdarg.o
 .debug_frame   0x00000c98      0x524 Debug/touch.o
 .debug_frame   0x000011bc      0x408 Debug/serial.o
 .debug_frame   0x000015c4      0x348 Debug/adc.o
 .debug_frame   0x0000190c      0x3a8 Debug/leds.o
 .debug_frame   0x00001cb4      0x378 Debug/buffer.o
 .debug_frame   0x0000202c      0x410 Debug/hlt.o
 .debug_frame   0x0000243c      0x3a8 Debug/mash_pump.o
 .debug_frame   0x000027e4      0x3a8 Debug/mill.o
 .debug_frame   0x00002b8c      0x3c4 Debug/boil.o
 .debug_frame   0x00002f50      0x3e8 Debug/hop_dropper.o
 .debug_frame   0x00003338      0x35c Debug/stir.o
 .debug_frame   0x00003694      0x368 Debug/stirApplet.o
 .debug_frame   0x000039fc      0x148 Debug/menu.o
 .debug_frame   0x00003b44      0x3ac Debug/valves.o
 .debug_frame   0x00003ef0      0x388 Debug/diag_temps.o
 .debug_frame   0x00004278      0x3c8 Debug/crane.o
 .debug_frame   0x00004640      0x368 Debug/speaker.o
 .debug_frame   0x000049a8      0x368 Debug/timer.o
 .debug_frame   0x00004d10      0x51c Debug/ds1820.o
 .debug_frame   0x0000522c      0x474 Debug/Flow1.o
 .debug_frame   0x000056a0      0x388 Debug/diag_pwm.o
 .debug_frame   0x00005a28      0x408 Debug/I2C-IO.o
 .debug_frame   0x00005e30      0x3a8 Debug/chiller_pump.o
 .debug_frame   0x000061d8      0x348 Debug/console.o
 .debug_frame   0x00006520      0x7d0 Debug/brew.o
 .debug_frame   0x00006cf0      0x384 Debug/parameters.o
 .debug_frame   0x00007074      0x3c8 Debug/boil_valve.o
 .debug_frame   0x0000743c      0x588 Debug/stf_syscalls_minimal.o
 .debug_frame   0x000079c4      0x348 Debug/io_util.o
 .debug_frame   0x00007d0c      0x280 Debug/core_cm3.o
 .debug_frame   0x00007f8c      0x378 Debug/system_stm32f10x.o
 .debug_frame   0x00008304      0x3a4 Debug/stm32f10x_it.o
 .debug_frame   0x000086a8      0x704 Debug/stm32f10x_i2c.o
 .debug_frame   0x00008dac      0x3a8 Debug/misc.o
 .debug_frame   0x00009154      0x6ec Debug/stm32f10x_rcc.o
 .debug_frame   0x00009840      0x540 Debug/stm32f10x_gpio.o
 .debug_frame   0x00009d80      0x5e0 Debug/stm32f10x_spi.o
 .debug_frame   0x0000a360      0xe48 Debug/stm32f10x_tim.o
 .debug_frame   0x0000b1a8      0x6a0 Debug/stm32f10x_usart.o
 .debug_frame   0x0000b848      0x550 Debug/stm32f10x_fsmc.o
 .debug_frame   0x0000bd98      0x5bc Debug/stm32f10x_flash.o
 .debug_frame   0x0000c354      0x77c Debug/stm32f10x_adc.o
 .debug_frame   0x0000cad0      0x3fc Debug/stm32f10x_exti.o
 .debug_frame   0x0000cecc       0x9c Debug/list.o
 .debug_frame   0x0000cf68      0x244 Debug/queue.o
 .debug_frame   0x0000d1ac      0x4c8 Debug/tasks.o
 .debug_frame   0x0000d674      0x110 Debug/port.o
 .debug_frame   0x0000d784       0x80 Debug/heap_2.o
 .debug_frame   0x0000d804       0x4c Debug/startup_stm32f10x.o
 .debug_frame   0x0000d850       0x34 /usr/local/CodeSourcery/bin/../lib/gcc/arm-none-eabi/4.5.2/../../../../arm-none-eabi/lib/thumb2/libm.a(lib_a-s_floor.o)
 .debug_frame   0x0000d884       0x20 /usr/local/CodeSourcery/bin/../lib/gcc/arm-none-eabi/4.5.2/../../../../arm-none-eabi/lib/thumb2/libc.a(lib_a-atof.o)
 .debug_frame   0x0000d8a4       0x30 /usr/local/CodeSourcery/bin/../lib/gcc/arm-none-eabi/4.5.2/../../../../arm-none-eabi/lib/thumb2/libc.a(lib_a-atoi.o)
 .debug_frame   0x0000d8d4       0x40 /usr/local/CodeSourcery/bin/../lib/gcc/arm-none-eabi/4.5.2/../../../../arm-none-eabi/lib/thumb2/libc.a(lib_a-fflush.o)
 .debug_frame   0x0000d914      0x114 /usr/local/CodeSourcery/bin/../lib/gcc/arm-none-eabi/4.5.2/../../../../arm-none-eabi/lib/thumb2/libc.a(lib_a-findfp.o)
 .debug_frame   0x0000da28       0x58 /usr/local/CodeSourcery/bin/../lib/gcc/arm-none-eabi/4.5.2/../../../../arm-none-eabi/lib/thumb2/libc.a(lib_a-fwalk.o)
 .debug_frame   0x0000da80       0x30 /usr/local/CodeSourcery/bin/../lib/gcc/arm-none-eabi/4.5.2/../../../../arm-none-eabi/lib/thumb2/libc.a(lib_a-malloc.o)
 .debug_frame   0x0000dab0       0x2c /usr/local/CodeSourcery/bin/../lib/gcc/arm-none-eabi/4.5.2/../../../../arm-none-eabi/lib/thumb2/libc.a(lib_a-memcmp.o)
 .debug_frame   0x0000dadc       0x30 /usr/local/CodeSourcery/bin/../lib/gcc/arm-none-eabi/4.5.2/../../../../arm-none-eabi/lib/thumb2/libc.a(lib_a-memcpy.o)
 .debug_frame   0x0000db0c       0x2c /usr/local/CodeSourcery/bin/../lib/gcc/arm-none-eabi/4.5.2/../../../../arm-none-eabi/lib/thumb2/libc.a(lib_a-memset.o)
 .debug_frame   0x0000db38       0x48 /usr/local/CodeSourcery/bin/../lib/gcc/arm-none-eabi/4.5.2/../../../../arm-none-eabi/lib/thumb2/libc.a(lib_a-putchar.o)
 .debug_frame   0x0000db80       0x40 /usr/local/CodeSourcery/bin/../lib/gcc/arm-none-eabi/4.5.2/../../../../arm-none-eabi/lib/thumb2/libc.a(lib_a-puts.o)
 .debug_frame   0x0000dbc0       0x68 /usr/local/CodeSourcery/bin/../lib/gcc/arm-none-eabi/4.5.2/../../../../arm-none-eabi/lib/thumb2/libc.a(lib_a-reent.o)
 .debug_frame   0x0000dc28       0x80 /usr/local/CodeSourcery/bin/../lib/gcc/arm-none-eabi/4.5.2/../../../../arm-none-eabi/lib/thumb2/libc.a(lib_a-stdio.o)
 .debug_frame   0x0000dca8       0x2c /usr/local/CodeSourcery/bin/../lib/gcc/arm-none-eabi/4.5.2/../../../../arm-none-eabi/lib/thumb2/libc.a(lib_a-strcat.o)
 .debug_frame   0x0000dcd4       0x30 /usr/local/CodeSourcery/bin/../lib/gcc/arm-none-eabi/4.5.2/../../../../arm-none-eabi/lib/thumb2/libc.a(lib_a-strcmp.o)
 .debug_frame   0x0000dd04       0x20 /usr/local/CodeSourcery/bin/../lib/gcc/arm-none-eabi/4.5.2/../../../../arm-none-eabi/lib/thumb2/libc.a(lib_a-strcpy.o)
 .debug_frame   0x0000dd24       0x20 /usr/local/CodeSourcery/bin/../lib/gcc/arm-none-eabi/4.5.2/../../../../arm-none-eabi/lib/thumb2/libc.a(lib_a-strlen.o)
 .debug_frame   0x0000dd44       0x2c /usr/local/CodeSourcery/bin/../lib/gcc/arm-none-eabi/4.5.2/../../../../arm-none-eabi/lib/thumb2/libc.a(lib_a-strncpy.o)
 .debug_frame   0x0000dd70       0x84 /usr/local/CodeSourcery/bin/../lib/gcc/arm-none-eabi/4.5.2/../../../../arm-none-eabi/lib/thumb2/libc.a(lib_a-strtod.o)
 .debug_frame   0x0000ddf4       0x54 /usr/local/CodeSourcery/bin/../lib/gcc/arm-none-eabi/4.5.2/../../../../arm-none-eabi/lib/thumb2/libc.a(lib_a-strtol.o)
 .debug_frame   0x0000de48       0x58 /usr/local/CodeSourcery/bin/../lib/gcc/arm-none-eabi/4.5.2/../../../../arm-none-eabi/lib/thumb2/libc.a(lib_a-vsnprintf.o)
 .debug_frame   0x0000dea0       0x2c /usr/local/CodeSourcery/bin/../lib/gcc/arm-none-eabi/4.5.2/../../../../arm-none-eabi/lib/thumb2/libc.a(lib_a-writer.o)
 .debug_frame   0x0000decc       0x2c /usr/local/CodeSourcery/bin/../lib/gcc/arm-none-eabi/4.5.2/../../../../arm-none-eabi/lib/thumb2/libc.a(lib_a-closer.o)
 .debug_frame   0x0000def8       0x3c /usr/local/CodeSourcery/bin/../lib/gcc/arm-none-eabi/4.5.2/../../../../arm-none-eabi/lib/thumb2/libc.a(lib_a-fclose.o)
 .debug_frame   0x0000df34       0x3c /usr/local/CodeSourcery/bin/../lib/gcc/arm-none-eabi/4.5.2/../../../../arm-none-eabi/lib/thumb2/libc.a(lib_a-fvwrite.o)
 .debug_frame   0x0000df70       0x6c /usr/local/CodeSourcery/bin/../lib/gcc/arm-none-eabi/4.5.2/../../../../arm-none-eabi/lib/thumb2/libc.a(lib_a-gdtoa-gethex.o)
 .debug_frame   0x0000dfdc       0x3c /usr/local/CodeSourcery/bin/../lib/gcc/arm-none-eabi/4.5.2/../../../../arm-none-eabi/lib/thumb2/libc.a(lib_a-gdtoa-hexnan.o)
 .debug_frame   0x0000e018       0x98 /usr/local/CodeSourcery/bin/../lib/gcc/arm-none-eabi/4.5.2/../../../../arm-none-eabi/lib/thumb2/libc.a(lib_a-locale.o)
 .debug_frame   0x0000e0b0       0x2c /usr/local/CodeSourcery/bin/../lib/gcc/arm-none-eabi/4.5.2/../../../../arm-none-eabi/lib/thumb2/libc.a(lib_a-lseekr.o)
 .debug_frame   0x0000e0dc       0x2c /usr/local/CodeSourcery/bin/../lib/gcc/arm-none-eabi/4.5.2/../../../../arm-none-eabi/lib/thumb2/libc.a(lib_a-memchr.o)
 .debug_frame   0x0000e108       0x2c /usr/local/CodeSourcery/bin/../lib/gcc/arm-none-eabi/4.5.2/../../../../arm-none-eabi/lib/thumb2/libc.a(lib_a-memmove.o)
 .debug_frame   0x0000e134      0x244 /usr/local/CodeSourcery/bin/../lib/gcc/arm-none-eabi/4.5.2/../../../../arm-none-eabi/lib/thumb2/libc.a(lib_a-mprec.o)
 .debug_frame   0x0000e378       0x48 /usr/local/CodeSourcery/bin/../lib/gcc/arm-none-eabi/4.5.2/../../../../arm-none-eabi/lib/thumb2/libc.a(lib_a-putc.o)
 .debug_frame   0x0000e3c0       0x2c /usr/local/CodeSourcery/bin/../lib/gcc/arm-none-eabi/4.5.2/../../../../arm-none-eabi/lib/thumb2/libc.a(lib_a-readr.o)
 .debug_frame   0x0000e3ec       0x2c /usr/local/CodeSourcery/bin/../lib/gcc/arm-none-eabi/4.5.2/../../../../arm-none-eabi/lib/thumb2/libc.a(lib_a-strncmp.o)
 .debug_frame   0x0000e418       0x3c /usr/local/CodeSourcery/bin/../lib/gcc/arm-none-eabi/4.5.2/../../../../arm-none-eabi/lib/thumb2/libc.a(lib_a-svfprintf.o)
 .debug_frame   0x0000e454       0x3c /usr/local/CodeSourcery/bin/../lib/gcc/arm-none-eabi/4.5.2/../../../../arm-none-eabi/lib/thumb2/libc.a(lib_a-wbuf.o)
 .debug_frame   0x0000e490       0x2c /usr/local/CodeSourcery/bin/../lib/gcc/arm-none-eabi/4.5.2/../../../../arm-none-eabi/lib/thumb2/libc.a(lib_a-wsetup.o)
 .debug_frame   0x0000e4bc       0x68 /usr/local/CodeSourcery/bin/../lib/gcc/arm-none-eabi/4.5.2/../../../../arm-none-eabi/lib/thumb2/libc.a(lib_a-dtoa.o)
 .debug_frame   0x0000e524       0x34 /usr/local/CodeSourcery/bin/../lib/gcc/arm-none-eabi/4.5.2/../../../../arm-none-eabi/lib/thumb2/libc.a(lib_a-makebuf.o)
 .debug_frame   0x0000e558       0x28 /usr/local/CodeSourcery/bin/../lib/gcc/arm-none-eabi/4.5.2/../../../../arm-none-eabi/lib/thumb2/libc.a(lib_a-s_fpclassify.o)
 .debug_frame   0x0000e580       0x68 /usr/local/CodeSourcery/bin/../lib/gcc/arm-none-eabi/4.5.2/../../../../arm-none-eabi/lib/thumb2/libc.a(lib_a-svfiprintf.o)
 .debug_frame   0x0000e5e8       0x2c /usr/local/CodeSourcery/bin/../lib/gcc/arm-none-eabi/4.5.2/../../../../arm-none-eabi/lib/thumb2/libc.a(lib_a-fstatr.o)
 .debug_frame   0x0000e614       0x2c /usr/local/CodeSourcery/bin/../lib/gcc/arm-none-eabi/4.5.2/../../../../arm-none-eabi/lib/thumb2/libc.a(lib_a-isattyr.o)
 .debug_frame   0x0000e640       0x20 /usr/local/CodeSourcery/bin/../lib/gcc/arm-none-eabi/4.5.2/thumb2/libgcc.a(_udivsi3.o)
 .debug_frame   0x0000e660       0x50 /usr/local/CodeSourcery/bin/../lib/gcc/arm-none-eabi/4.5.2/thumb2/libgcc.a(bpabi.o)
 .debug_frame   0x0000e6b0       0x3c /usr/local/CodeSourcery/bin/../lib/gcc/arm-none-eabi/4.5.2/thumb2/libgcc.a(_divdi3.o)
 .debug_frame   0x0000e6ec       0x3c /usr/local/CodeSourcery/bin/../lib/gcc/arm-none-eabi/4.5.2/thumb2/libgcc.a(_udivdi3.o)
